	.text
	.file	"grafo.cpp"
	.globl	_ZN5GrafoC2Ei           // -- Begin function _ZN5GrafoC2Ei
	.p2align	2
	.type	_ZN5GrafoC2Ei,@function
_ZN5GrafoC2Ei:                          // @_ZN5GrafoC2Ei
.Lfunc_begin0:
	.cfi_startproc
	.cfi_personality 156, DW.ref.__gxx_personality_v0
	.cfi_lsda 28, .Lexception0
// %bb.0:
	sub	sp, sp, #176            // =176
	stp	x29, x30, [sp, #160]    // 16-byte Folded Spill
	add	x29, sp, #160           // =160
	.cfi_def_cfa w29, 16
	.cfi_offset w30, -8
	.cfi_offset w29, -16
	orr	x8, xzr, #0x18
	orr	x9, xzr, #0x30
	mov	x10, #72
	mov	w11, #0
	stur	x0, [x29, #-8]
	stur	w1, [x29, #-12]
	ldur	x0, [x29, #-8]
	mov	x2, x0
	stur	x0, [x29, #-72]         // 8-byte Folded Spill
	mov	x0, x2
	str	x8, [sp, #80]           // 8-byte Folded Spill
	str	x9, [sp, #72]           // 8-byte Folded Spill
	str	x10, [sp, #64]          // 8-byte Folded Spill
	str	w11, [sp, #60]          // 4-byte Folded Spill
	str	x2, [sp, #48]           // 8-byte Folded Spill
	bl	_ZNSt6__ndk16vectorINS0_IiNS_9allocatorIiEEEENS1_IS3_EEEC2Ev
	ldur	x8, [x29, #-72]         // 8-byte Folded Reload
	ldr	x9, [sp, #80]           // 8-byte Folded Reload
	add	x10, x8, x9
	mov	x0, x10
	str	x10, [sp, #40]          // 8-byte Folded Spill
	bl	_ZNSt6__ndk16vectorINS0_IiNS_9allocatorIiEEEENS1_IS3_EEEC2Ev
	ldur	x8, [x29, #-72]         // 8-byte Folded Reload
	ldr	x9, [sp, #72]           // 8-byte Folded Reload
	add	x10, x8, x9
	mov	x0, x10
	str	x10, [sp, #32]          // 8-byte Folded Spill
	bl	_ZNSt6__ndk16vectorIiNS_9allocatorIiEEEC2Ev
	ldur	x8, [x29, #-72]         // 8-byte Folded Reload
	ldr	x9, [sp, #64]           // 8-byte Folded Reload
	add	x10, x8, x9
	mov	x0, x10
	str	x10, [sp, #24]          // 8-byte Folded Spill
	bl	_ZNSt6__ndk16vectorIbNS_9allocatorIbEEEC2Ev
	ldur	w11, [x29, #-12]
	ldur	x8, [x29, #-72]         // 8-byte Folded Reload
	str	w11, [x8, #96]
	ldur	w11, [x29, #-12]
	mov	w9, w11
	sxtw	x1, w9
.Ltmp0:
	mov	x0, x8
	bl	_ZNSt6__ndk16vectorINS0_IiNS_9allocatorIiEEEENS1_IS3_EEE7reserveEm
.Ltmp1:
	b	.LBB0_1
.LBB0_1:
	stur	wzr, [x29, #-32]
.LBB0_2:                                // =>This Inner Loop Header: Depth=1
	ldur	w8, [x29, #-32]
	ldur	w9, [x29, #-12]
	cmp	w8, w9
	cset	w8, lt
	tbnz	w8, #0, .LBB0_3
	b	.LBB0_11
.LBB0_3:                                //   in Loop: Header=BB0_2 Depth=1
	sub	x0, x29, #56            // =56
	ldur	x8, [x29, #-72]         // 8-byte Folded Reload
	ldur	w9, [x29, #-12]
	subs	w9, w9, #1              // =1
	mov	w10, w9
	sxtw	x1, w10
.Ltmp2:
	str	x8, [sp, #16]           // 8-byte Folded Spill
	bl	_ZNSt6__ndk16vectorIiNS_9allocatorIiEEEC2Em
.Ltmp3:
	b	.LBB0_4
.LBB0_4:                                //   in Loop: Header=BB0_2 Depth=1
.Ltmp4:
	sub	x1, x29, #56            // =56
	ldr	x0, [sp, #16]           // 8-byte Folded Reload
	bl	_ZNSt6__ndk16vectorINS0_IiNS_9allocatorIiEEEENS1_IS3_EEE9push_backEOS3_
.Ltmp5:
	b	.LBB0_5
.LBB0_5:                                //   in Loop: Header=BB0_2 Depth=1
	sub	x1, x29, #60            // =60
	sub	x0, x29, #56            // =56
	orr	x8, xzr, #0x30
	str	x1, [sp, #8]            // 8-byte Folded Spill
	str	x8, [sp]                // 8-byte Folded Spill
	bl	_ZNSt6__ndk16vectorIiNS_9allocatorIiEEED2Ev
	ldur	x8, [x29, #-72]         // 8-byte Folded Reload
	ldr	x0, [sp]                // 8-byte Folded Reload
	add	x0, x8, x0
	stur	wzr, [x29, #-60]
.Ltmp7:
	ldr	x1, [sp, #8]            // 8-byte Folded Reload
	bl	_ZNSt6__ndk16vectorIiNS_9allocatorIiEEE9push_backEOi
.Ltmp8:
	b	.LBB0_6
.LBB0_6:                                //   in Loop: Header=BB0_2 Depth=1
	sub	x1, x29, #61            // =61
	mov	x8, #72
	ldur	x9, [x29, #-72]         // 8-byte Folded Reload
	add	x0, x9, x8
	ldr	w10, [sp, #60]          // 4-byte Folded Reload
	sturb	w10, [x29, #-61]
.Ltmp9:
	bl	_ZNSt6__ndk16vectorIbNS_9allocatorIbEEE9push_backERKb
.Ltmp10:
	b	.LBB0_7
.LBB0_7:                                //   in Loop: Header=BB0_2 Depth=1
// %bb.8:                               //   in Loop: Header=BB0_2 Depth=1
	ldur	w8, [x29, #-32]
	add	w8, w8, #1              // =1
	stur	w8, [x29, #-32]
	b	.LBB0_2
.LBB0_9:
.Ltmp11:
	mov	w8, w1
	stur	x0, [x29, #-24]
	stur	w8, [x29, #-28]
	b	.LBB0_12
.LBB0_10:
.Ltmp6:
	sub	x8, x29, #56            // =56
	mov	w9, w1
	stur	x0, [x29, #-24]
	stur	w9, [x29, #-28]
	mov	x0, x8
	bl	_ZNSt6__ndk16vectorIiNS_9allocatorIiEEED2Ev
	b	.LBB0_12
.LBB0_11:
	ldp	x29, x30, [sp, #160]    // 16-byte Folded Reload
	add	sp, sp, #176            // =176
	ret
.LBB0_12:
	ldr	x0, [sp, #24]           // 8-byte Folded Reload
	bl	_ZNSt6__ndk16vectorIbNS_9allocatorIbEEED2Ev
	ldr	x0, [sp, #32]           // 8-byte Folded Reload
	bl	_ZNSt6__ndk16vectorIiNS_9allocatorIiEEED2Ev
	ldr	x0, [sp, #40]           // 8-byte Folded Reload
	bl	_ZNSt6__ndk16vectorINS0_IiNS_9allocatorIiEEEENS1_IS3_EEED2Ev
	ldr	x0, [sp, #48]           // 8-byte Folded Reload
	bl	_ZNSt6__ndk16vectorINS0_IiNS_9allocatorIiEEEENS1_IS3_EEED2Ev
// %bb.13:
	ldur	x0, [x29, #-24]
	bl	_Unwind_Resume
.Lfunc_end0:
	.size	_ZN5GrafoC2Ei, .Lfunc_end0-_ZN5GrafoC2Ei
	.cfi_endproc
	.section	.gcc_except_table,"a",@progbits
	.p2align	2
GCC_except_table0:
.Lexception0:
	.byte	255                     // @LPStart Encoding = omit
	.byte	255                     // @TType Encoding = omit
	.byte	1                       // Call site Encoding = uleb128
	.uleb128 .Lcst_end0-.Lcst_begin0
.Lcst_begin0:
	.uleb128 .Ltmp0-.Lfunc_begin0   // >> Call Site 1 <<
	.uleb128 .Ltmp3-.Ltmp0          //   Call between .Ltmp0 and .Ltmp3
	.uleb128 .Ltmp11-.Lfunc_begin0  //     jumps to .Ltmp11
	.byte	0                       //   On action: cleanup
	.uleb128 .Ltmp4-.Lfunc_begin0   // >> Call Site 2 <<
	.uleb128 .Ltmp5-.Ltmp4          //   Call between .Ltmp4 and .Ltmp5
	.uleb128 .Ltmp6-.Lfunc_begin0   //     jumps to .Ltmp6
	.byte	0                       //   On action: cleanup
	.uleb128 .Ltmp7-.Lfunc_begin0   // >> Call Site 3 <<
	.uleb128 .Ltmp10-.Ltmp7         //   Call between .Ltmp7 and .Ltmp10
	.uleb128 .Ltmp11-.Lfunc_begin0  //     jumps to .Ltmp11
	.byte	0                       //   On action: cleanup
	.uleb128 .Ltmp10-.Lfunc_begin0  // >> Call Site 4 <<
	.uleb128 .Lfunc_end0-.Ltmp10    //   Call between .Ltmp10 and .Lfunc_end0
	.byte	0                       //     has no landing pad
	.byte	0                       //   On action: cleanup
.Lcst_end0:
	.p2align	2
                                        // -- End function
	.section	.text._ZNSt6__ndk16vectorINS0_IiNS_9allocatorIiEEEENS1_IS3_EEEC2Ev,"axG",@progbits,_ZNSt6__ndk16vectorINS0_IiNS_9allocatorIiEEEENS1_IS3_EEEC2Ev,comdat
	.hidden	_ZNSt6__ndk16vectorINS0_IiNS_9allocatorIiEEEENS1_IS3_EEEC2Ev // -- Begin function _ZNSt6__ndk16vectorINS0_IiNS_9allocatorIiEEEENS1_IS3_EEEC2Ev
	.weak	_ZNSt6__ndk16vectorINS0_IiNS_9allocatorIiEEEENS1_IS3_EEEC2Ev
	.p2align	2
	.type	_ZNSt6__ndk16vectorINS0_IiNS_9allocatorIiEEEENS1_IS3_EEEC2Ev,@function
_ZNSt6__ndk16vectorINS0_IiNS_9allocatorIiEEEENS1_IS3_EEEC2Ev: // @_ZNSt6__ndk16vectorINS0_IiNS_9allocatorIiEEEENS1_IS3_EEEC2Ev
// %bb.0:
	sub	sp, sp, #32             // =32
	stp	x29, x30, [sp, #16]     // 16-byte Folded Spill
	add	x29, sp, #16            // =16
	str	x0, [sp, #8]
	ldr	x0, [sp, #8]
	bl	_ZNSt6__ndk113__vector_baseINS_6vectorIiNS_9allocatorIiEEEENS2_IS4_EEEC2Ev
	ldp	x29, x30, [sp, #16]     // 16-byte Folded Reload
	add	sp, sp, #32             // =32
	ret
.Lfunc_end1:
	.size	_ZNSt6__ndk16vectorINS0_IiNS_9allocatorIiEEEENS1_IS3_EEEC2Ev, .Lfunc_end1-_ZNSt6__ndk16vectorINS0_IiNS_9allocatorIiEEEENS1_IS3_EEEC2Ev
                                        // -- End function
	.section	.text._ZNSt6__ndk16vectorIiNS_9allocatorIiEEEC2Ev,"axG",@progbits,_ZNSt6__ndk16vectorIiNS_9allocatorIiEEEC2Ev,comdat
	.hidden	_ZNSt6__ndk16vectorIiNS_9allocatorIiEEEC2Ev // -- Begin function _ZNSt6__ndk16vectorIiNS_9allocatorIiEEEC2Ev
	.weak	_ZNSt6__ndk16vectorIiNS_9allocatorIiEEEC2Ev
	.p2align	2
	.type	_ZNSt6__ndk16vectorIiNS_9allocatorIiEEEC2Ev,@function
_ZNSt6__ndk16vectorIiNS_9allocatorIiEEEC2Ev: // @_ZNSt6__ndk16vectorIiNS_9allocatorIiEEEC2Ev
// %bb.0:
	sub	sp, sp, #32             // =32
	stp	x29, x30, [sp, #16]     // 16-byte Folded Spill
	add	x29, sp, #16            // =16
	str	x0, [sp, #8]
	ldr	x0, [sp, #8]
	bl	_ZNSt6__ndk113__vector_baseIiNS_9allocatorIiEEEC2Ev
	ldp	x29, x30, [sp, #16]     // 16-byte Folded Reload
	add	sp, sp, #32             // =32
	ret
.Lfunc_end2:
	.size	_ZNSt6__ndk16vectorIiNS_9allocatorIiEEEC2Ev, .Lfunc_end2-_ZNSt6__ndk16vectorIiNS_9allocatorIiEEEC2Ev
                                        // -- End function
	.section	.text._ZNSt6__ndk16vectorIbNS_9allocatorIbEEEC2Ev,"axG",@progbits,_ZNSt6__ndk16vectorIbNS_9allocatorIbEEEC2Ev,comdat
	.hidden	_ZNSt6__ndk16vectorIbNS_9allocatorIbEEEC2Ev // -- Begin function _ZNSt6__ndk16vectorIbNS_9allocatorIbEEEC2Ev
	.weak	_ZNSt6__ndk16vectorIbNS_9allocatorIbEEEC2Ev
	.p2align	2
	.type	_ZNSt6__ndk16vectorIbNS_9allocatorIbEEEC2Ev,@function
_ZNSt6__ndk16vectorIbNS_9allocatorIbEEEC2Ev: // @_ZNSt6__ndk16vectorIbNS_9allocatorIbEEEC2Ev
.Lfunc_begin1:
	.cfi_startproc
	.cfi_personality 156, DW.ref.__gxx_personality_v0
	.cfi_lsda 28, .Lexception1
// %bb.0:
	sub	sp, sp, #48             // =48
	stp	x29, x30, [sp, #32]     // 16-byte Folded Spill
	add	x29, sp, #32            // =32
	.cfi_def_cfa w29, 16
	.cfi_offset w30, -8
	.cfi_offset w29, -16
	mov	x8, #0
	stur	x0, [x29, #-8]
	ldur	x0, [x29, #-8]
.Ltmp12:
	str	x0, [sp, #8]            // 8-byte Folded Spill
	str	x8, [sp]                // 8-byte Folded Spill
	bl	_ZNSt6__ndk120__vector_base_commonILb1EEC2Ev
.Ltmp13:
	b	.LBB3_1
.LBB3_1:
	sub	x1, x29, #12            // =12
	orr	x8, xzr, #0x10
	ldr	x9, [sp, #8]            // 8-byte Folded Reload
	ldr	x10, [sp]               // 8-byte Folded Reload
	str	x10, [x9]
	ldr	x9, [sp, #8]            // 8-byte Folded Reload
	str	xzr, [x9, #8]
	add	x0, x9, x8
	stur	wzr, [x29, #-12]
.Ltmp14:
	bl	_ZNSt6__ndk117__compressed_pairImNS_9allocatorImEEEC2IiLb1EEEOT_
.Ltmp15:
	b	.LBB3_2
.LBB3_2:
	ldp	x29, x30, [sp, #32]     // 16-byte Folded Reload
	add	sp, sp, #48             // =48
	ret
.LBB3_3:
.Ltmp16:
	bl	__clang_call_terminate
.Lfunc_end3:
	.size	_ZNSt6__ndk16vectorIbNS_9allocatorIbEEEC2Ev, .Lfunc_end3-_ZNSt6__ndk16vectorIbNS_9allocatorIbEEEC2Ev
	.cfi_endproc
	.section	.gcc_except_table,"a",@progbits
	.p2align	2
GCC_except_table3:
.Lexception1:
	.byte	255                     // @LPStart Encoding = omit
	.byte	156                     // @TType Encoding = indirect pcrel sdata8
	.uleb128 .Lttbase0-.Lttbaseref0
.Lttbaseref0:
	.byte	1                       // Call site Encoding = uleb128
	.uleb128 .Lcst_end1-.Lcst_begin1
.Lcst_begin1:
	.uleb128 .Ltmp12-.Lfunc_begin1  // >> Call Site 1 <<
	.uleb128 .Ltmp15-.Ltmp12        //   Call between .Ltmp12 and .Ltmp15
	.uleb128 .Ltmp16-.Lfunc_begin1  //     jumps to .Ltmp16
	.byte	1                       //   On action: 1
.Lcst_end1:
	.byte	1                       // >> Action Record 1 <<
                                        //   Catch TypeInfo 1
	.byte	0                       //   No further actions
	.p2align	2
                                        // >> Catch TypeInfos <<
	.xword	0                       // TypeInfo 1
.Lttbase0:
	.p2align	2
                                        // -- End function
	.section	.text._ZNSt6__ndk16vectorINS0_IiNS_9allocatorIiEEEENS1_IS3_EEE7reserveEm,"axG",@progbits,_ZNSt6__ndk16vectorINS0_IiNS_9allocatorIiEEEENS1_IS3_EEE7reserveEm,comdat
	.weak	_ZNSt6__ndk16vectorINS0_IiNS_9allocatorIiEEEENS1_IS3_EEE7reserveEm // -- Begin function _ZNSt6__ndk16vectorINS0_IiNS_9allocatorIiEEEENS1_IS3_EEE7reserveEm
	.p2align	2
	.type	_ZNSt6__ndk16vectorINS0_IiNS_9allocatorIiEEEENS1_IS3_EEE7reserveEm,@function
_ZNSt6__ndk16vectorINS0_IiNS_9allocatorIiEEEENS1_IS3_EEE7reserveEm: // @_ZNSt6__ndk16vectorINS0_IiNS_9allocatorIiEEEENS1_IS3_EEE7reserveEm
.Lfunc_begin2:
	.cfi_startproc
	.cfi_personality 156, DW.ref.__gxx_personality_v0
	.cfi_lsda 28, .Lexception2
// %bb.0:
	sub	sp, sp, #144            // =144
	stp	x29, x30, [sp, #128]    // 16-byte Folded Spill
	add	x29, sp, #128           // =128
	.cfi_def_cfa w29, 16
	.cfi_offset w30, -8
	.cfi_offset w29, -16
	stur	x0, [x29, #-8]
	stur	x1, [x29, #-16]
	ldur	x0, [x29, #-8]
	ldur	x1, [x29, #-16]
	str	x0, [sp, #40]           // 8-byte Folded Spill
	str	x1, [sp, #32]           // 8-byte Folded Spill
	bl	_ZNKSt6__ndk16vectorINS0_IiNS_9allocatorIiEEEENS1_IS3_EEE8capacityEv
	ldr	x1, [sp, #32]           // 8-byte Folded Reload
	cmp	x1, x0
	cset	w8, hi
	tbnz	w8, #0, .LBB4_1
	b	.LBB4_4
.LBB4_1:
	add	x8, sp, #64             // =64
	ldr	x0, [sp, #40]           // 8-byte Folded Reload
	str	x8, [sp, #24]           // 8-byte Folded Spill
	bl	_ZNSt6__ndk113__vector_baseINS_6vectorIiNS_9allocatorIiEEEENS2_IS4_EEE7__allocEv
	stur	x0, [x29, #-24]
	ldur	x1, [x29, #-16]
	ldr	x0, [sp, #40]           // 8-byte Folded Reload
	str	x1, [sp, #16]           // 8-byte Folded Spill
	bl	_ZNKSt6__ndk16vectorINS0_IiNS_9allocatorIiEEEENS1_IS3_EEE4sizeEv
	ldur	x3, [x29, #-24]
	ldr	x8, [sp, #24]           // 8-byte Folded Reload
	str	x0, [sp, #8]            // 8-byte Folded Spill
	mov	x0, x8
	ldr	x1, [sp, #16]           // 8-byte Folded Reload
	ldr	x2, [sp, #8]            // 8-byte Folded Reload
	bl	_ZNSt6__ndk114__split_bufferINS_6vectorIiNS_9allocatorIiEEEERNS2_IS4_EEEC2EmmS6_
.Ltmp17:
	ldr	x0, [sp, #40]           // 8-byte Folded Reload
	ldr	x1, [sp, #24]           // 8-byte Folded Reload
	bl	_ZNSt6__ndk16vectorINS0_IiNS_9allocatorIiEEEENS1_IS3_EEE26__swap_out_circular_bufferERNS_14__split_bufferIS3_RS4_EE
.Ltmp18:
	b	.LBB4_2
.LBB4_2:
	add	x0, sp, #64             // =64
	bl	_ZNSt6__ndk114__split_bufferINS_6vectorIiNS_9allocatorIiEEEERNS2_IS4_EEED2Ev
	b	.LBB4_4
.LBB4_3:
.Ltmp19:
	add	x8, sp, #64             // =64
	mov	w9, w1
	str	x0, [sp, #56]
	str	w9, [sp, #52]
	mov	x0, x8
	bl	_ZNSt6__ndk114__split_bufferINS_6vectorIiNS_9allocatorIiEEEERNS2_IS4_EEED2Ev
	b	.LBB4_5
.LBB4_4:
	ldp	x29, x30, [sp, #128]    // 16-byte Folded Reload
	add	sp, sp, #144            // =144
	ret
.LBB4_5:
	ldr	x0, [sp, #56]
	bl	_Unwind_Resume
.Lfunc_end4:
	.size	_ZNSt6__ndk16vectorINS0_IiNS_9allocatorIiEEEENS1_IS3_EEE7reserveEm, .Lfunc_end4-_ZNSt6__ndk16vectorINS0_IiNS_9allocatorIiEEEENS1_IS3_EEE7reserveEm
	.cfi_endproc
	.section	.gcc_except_table,"a",@progbits
	.p2align	2
GCC_except_table4:
.Lexception2:
	.byte	255                     // @LPStart Encoding = omit
	.byte	255                     // @TType Encoding = omit
	.byte	1                       // Call site Encoding = uleb128
	.uleb128 .Lcst_end2-.Lcst_begin2
.Lcst_begin2:
	.uleb128 .Lfunc_begin2-.Lfunc_begin2 // >> Call Site 1 <<
	.uleb128 .Ltmp17-.Lfunc_begin2  //   Call between .Lfunc_begin2 and .Ltmp17
	.byte	0                       //     has no landing pad
	.byte	0                       //   On action: cleanup
	.uleb128 .Ltmp17-.Lfunc_begin2  // >> Call Site 2 <<
	.uleb128 .Ltmp18-.Ltmp17        //   Call between .Ltmp17 and .Ltmp18
	.uleb128 .Ltmp19-.Lfunc_begin2  //     jumps to .Ltmp19
	.byte	0                       //   On action: cleanup
	.uleb128 .Ltmp18-.Lfunc_begin2  // >> Call Site 3 <<
	.uleb128 .Lfunc_end4-.Ltmp18    //   Call between .Ltmp18 and .Lfunc_end4
	.byte	0                       //     has no landing pad
	.byte	0                       //   On action: cleanup
.Lcst_end2:
	.p2align	2
                                        // -- End function
	.section	.text._ZNSt6__ndk16vectorINS0_IiNS_9allocatorIiEEEENS1_IS3_EEE9push_backEOS3_,"axG",@progbits,_ZNSt6__ndk16vectorINS0_IiNS_9allocatorIiEEEENS1_IS3_EEE9push_backEOS3_,comdat
	.hidden	_ZNSt6__ndk16vectorINS0_IiNS_9allocatorIiEEEENS1_IS3_EEE9push_backEOS3_ // -- Begin function _ZNSt6__ndk16vectorINS0_IiNS_9allocatorIiEEEENS1_IS3_EEE9push_backEOS3_
	.weak	_ZNSt6__ndk16vectorINS0_IiNS_9allocatorIiEEEENS1_IS3_EEE9push_backEOS3_
	.p2align	2
	.type	_ZNSt6__ndk16vectorINS0_IiNS_9allocatorIiEEEENS1_IS3_EEE9push_backEOS3_,@function
_ZNSt6__ndk16vectorINS0_IiNS_9allocatorIiEEEENS1_IS3_EEE9push_backEOS3_: // @_ZNSt6__ndk16vectorINS0_IiNS_9allocatorIiEEEENS1_IS3_EEE9push_backEOS3_
	.cfi_startproc
// %bb.0:
	sub	sp, sp, #112            // =112
	stp	x29, x30, [sp, #96]     // 16-byte Folded Spill
	add	x29, sp, #96            // =96
	.cfi_def_cfa w29, 16
	.cfi_offset w30, -8
	.cfi_offset w29, -16
	stur	x0, [x29, #-8]
	stur	x1, [x29, #-16]
	ldur	x0, [x29, #-8]
	ldr	x1, [x0, #8]
	stur	x0, [x29, #-32]         // 8-byte Folded Spill
	stur	x1, [x29, #-40]         // 8-byte Folded Spill
	bl	_ZNSt6__ndk113__vector_baseINS_6vectorIiNS_9allocatorIiEEEENS2_IS4_EEE9__end_capEv
	ldr	x0, [x0]
	ldur	x1, [x29, #-40]         // 8-byte Folded Reload
	cmp	x1, x0
	cset	w8, lo
	tbnz	w8, #0, .LBB5_1
	b	.LBB5_2
.LBB5_1:
	sub	x8, x29, #17            // =17
	orr	x9, xzr, #0x18
	orr	x2, xzr, #0x1
	mov	x0, x8
	ldur	x1, [x29, #-32]         // 8-byte Folded Reload
	str	x8, [sp, #48]           // 8-byte Folded Spill
	str	x9, [sp, #40]           // 8-byte Folded Spill
	bl	_ZNSt6__ndk16vectorINS0_IiNS_9allocatorIiEEEENS1_IS3_EEE24__RAII_IncreaseAnnotatorC2ERKS5_m
	ldur	x0, [x29, #-32]         // 8-byte Folded Reload
	bl	_ZNSt6__ndk113__vector_baseINS_6vectorIiNS_9allocatorIiEEEENS2_IS4_EEE7__allocEv
	ldur	x8, [x29, #-32]         // 8-byte Folded Reload
	ldr	x9, [x8, #8]
	str	x0, [sp, #32]           // 8-byte Folded Spill
	mov	x0, x9
	bl	_ZNSt6__ndk116__to_raw_pointerINS_6vectorIiNS_9allocatorIiEEEEEEPT_S6_
	ldur	x8, [x29, #-16]
	str	x0, [sp, #24]           // 8-byte Folded Spill
	mov	x0, x8
	bl	_ZNSt6__ndk14moveIRNS_6vectorIiNS_9allocatorIiEEEEEEONS_16remove_referenceIT_E4typeEOS7_
	ldr	x1, [sp, #32]           // 8-byte Folded Reload
	str	x0, [sp, #16]           // 8-byte Folded Spill
	mov	x0, x1
	ldr	x1, [sp, #24]           // 8-byte Folded Reload
	ldr	x2, [sp, #16]           // 8-byte Folded Reload
	bl	_ZNSt6__ndk116allocator_traitsINS_9allocatorINS_6vectorIiNS1_IiEEEEEEE9constructIS4_JS4_EEEvRS5_PT_DpOT0_
	ldr	x0, [sp, #48]           // 8-byte Folded Reload
	bl	_ZNSt6__ndk16vectorINS0_IiNS_9allocatorIiEEEENS1_IS3_EEE24__RAII_IncreaseAnnotator6__doneEv
	ldur	x8, [x29, #-32]         // 8-byte Folded Reload
	ldr	x9, [x8, #8]
	ldr	x0, [sp, #40]           // 8-byte Folded Reload
	add	x9, x9, x0
	str	x9, [x8, #8]
	b	.LBB5_3
.LBB5_2:
	ldur	x0, [x29, #-16]
	bl	_ZNSt6__ndk14moveIRNS_6vectorIiNS_9allocatorIiEEEEEEONS_16remove_referenceIT_E4typeEOS7_
	ldur	x8, [x29, #-32]         // 8-byte Folded Reload
	str	x0, [sp, #8]            // 8-byte Folded Spill
	mov	x0, x8
	ldr	x1, [sp, #8]            // 8-byte Folded Reload
	bl	_ZNSt6__ndk16vectorINS0_IiNS_9allocatorIiEEEENS1_IS3_EEE21__push_back_slow_pathIS3_EEvOT_
.LBB5_3:
	ldp	x29, x30, [sp, #96]     // 16-byte Folded Reload
	add	sp, sp, #112            // =112
	ret
.Lfunc_end5:
	.size	_ZNSt6__ndk16vectorINS0_IiNS_9allocatorIiEEEENS1_IS3_EEE9push_backEOS3_, .Lfunc_end5-_ZNSt6__ndk16vectorINS0_IiNS_9allocatorIiEEEENS1_IS3_EEE9push_backEOS3_
	.cfi_endproc
                                        // -- End function
	.section	.text._ZNSt6__ndk16vectorIiNS_9allocatorIiEEEC2Em,"axG",@progbits,_ZNSt6__ndk16vectorIiNS_9allocatorIiEEEC2Em,comdat
	.weak	_ZNSt6__ndk16vectorIiNS_9allocatorIiEEEC2Em // -- Begin function _ZNSt6__ndk16vectorIiNS_9allocatorIiEEEC2Em
	.p2align	2
	.type	_ZNSt6__ndk16vectorIiNS_9allocatorIiEEEC2Em,@function
_ZNSt6__ndk16vectorIiNS_9allocatorIiEEEC2Em: // @_ZNSt6__ndk16vectorIiNS_9allocatorIiEEEC2Em
.Lfunc_begin3:
	.cfi_startproc
	.cfi_personality 156, DW.ref.__gxx_personality_v0
	.cfi_lsda 28, .Lexception3
// %bb.0:
	sub	sp, sp, #64             // =64
	stp	x29, x30, [sp, #48]     // 16-byte Folded Spill
	add	x29, sp, #48            // =48
	.cfi_def_cfa w29, 16
	.cfi_offset w30, -8
	.cfi_offset w29, -16
	mov	x8, #0
	stur	x0, [x29, #-8]
	stur	x1, [x29, #-16]
	ldur	x0, [x29, #-8]
	str	x0, [sp, #8]            // 8-byte Folded Spill
	str	x8, [sp]                // 8-byte Folded Spill
	bl	_ZNSt6__ndk113__vector_baseIiNS_9allocatorIiEEEC2Ev
	ldur	x8, [x29, #-16]
	ldr	x0, [sp]                // 8-byte Folded Reload
	cmp	x8, x0
	cset	w9, hi
	tbnz	w9, #0, .LBB6_1
	b	.LBB6_5
.LBB6_1:
	ldur	x1, [x29, #-16]
.Ltmp20:
	ldr	x0, [sp, #8]            // 8-byte Folded Reload
	bl	_ZNSt6__ndk16vectorIiNS_9allocatorIiEEE11__vallocateEm
.Ltmp21:
	b	.LBB6_2
.LBB6_2:
	ldur	x1, [x29, #-16]
.Ltmp22:
	ldr	x0, [sp, #8]            // 8-byte Folded Reload
	bl	_ZNSt6__ndk16vectorIiNS_9allocatorIiEEE18__construct_at_endEm
.Ltmp23:
	b	.LBB6_3
.LBB6_3:
	b	.LBB6_5
.LBB6_4:
.Ltmp24:
	mov	w8, w1
	str	x0, [sp, #24]
	str	w8, [sp, #20]
	ldr	x0, [sp, #8]            // 8-byte Folded Reload
	bl	_ZNSt6__ndk113__vector_baseIiNS_9allocatorIiEEED2Ev
	b	.LBB6_6
.LBB6_5:
	ldp	x29, x30, [sp, #48]     // 16-byte Folded Reload
	add	sp, sp, #64             // =64
	ret
.LBB6_6:
	ldr	x0, [sp, #24]
	bl	_Unwind_Resume
.Lfunc_end6:
	.size	_ZNSt6__ndk16vectorIiNS_9allocatorIiEEEC2Em, .Lfunc_end6-_ZNSt6__ndk16vectorIiNS_9allocatorIiEEEC2Em
	.cfi_endproc
	.section	.gcc_except_table,"a",@progbits
	.p2align	2
GCC_except_table6:
.Lexception3:
	.byte	255                     // @LPStart Encoding = omit
	.byte	255                     // @TType Encoding = omit
	.byte	1                       // Call site Encoding = uleb128
	.uleb128 .Lcst_end3-.Lcst_begin3
.Lcst_begin3:
	.uleb128 .Ltmp20-.Lfunc_begin3  // >> Call Site 1 <<
	.uleb128 .Ltmp23-.Ltmp20        //   Call between .Ltmp20 and .Ltmp23
	.uleb128 .Ltmp24-.Lfunc_begin3  //     jumps to .Ltmp24
	.byte	0                       //   On action: cleanup
	.uleb128 .Ltmp23-.Lfunc_begin3  // >> Call Site 2 <<
	.uleb128 .Lfunc_end6-.Ltmp23    //   Call between .Ltmp23 and .Lfunc_end6
	.byte	0                       //     has no landing pad
	.byte	0                       //   On action: cleanup
.Lcst_end3:
	.p2align	2
                                        // -- End function
	.section	.text._ZNSt6__ndk16vectorIiNS_9allocatorIiEEED2Ev,"axG",@progbits,_ZNSt6__ndk16vectorIiNS_9allocatorIiEEED2Ev,comdat
	.hidden	_ZNSt6__ndk16vectorIiNS_9allocatorIiEEED2Ev // -- Begin function _ZNSt6__ndk16vectorIiNS_9allocatorIiEEED2Ev
	.weak	_ZNSt6__ndk16vectorIiNS_9allocatorIiEEED2Ev
	.p2align	2
	.type	_ZNSt6__ndk16vectorIiNS_9allocatorIiEEED2Ev,@function
_ZNSt6__ndk16vectorIiNS_9allocatorIiEEED2Ev: // @_ZNSt6__ndk16vectorIiNS_9allocatorIiEEED2Ev
.Lfunc_begin4:
	.cfi_startproc
	.cfi_personality 156, DW.ref.__gxx_personality_v0
	.cfi_lsda 28, .Lexception4
// %bb.0:
	sub	sp, sp, #48             // =48
	stp	x29, x30, [sp, #32]     // 16-byte Folded Spill
	add	x29, sp, #32            // =32
	.cfi_def_cfa w29, 16
	.cfi_offset w30, -8
	.cfi_offset w29, -16
	stur	x0, [x29, #-8]
	ldur	x0, [x29, #-8]
.Ltmp25:
	str	x0, [sp]                // 8-byte Folded Spill
	bl	_ZNKSt6__ndk16vectorIiNS_9allocatorIiEEE17__annotate_deleteEv
.Ltmp26:
	b	.LBB7_1
.LBB7_1:
	ldr	x0, [sp]                // 8-byte Folded Reload
	bl	_ZNSt6__ndk113__vector_baseIiNS_9allocatorIiEEED2Ev
	ldp	x29, x30, [sp, #32]     // 16-byte Folded Reload
	add	sp, sp, #48             // =48
	ret
.LBB7_2:
.Ltmp27:
	mov	w8, w1
	str	x0, [sp, #16]
	str	w8, [sp, #12]
	ldr	x0, [sp]                // 8-byte Folded Reload
	bl	_ZNSt6__ndk113__vector_baseIiNS_9allocatorIiEEED2Ev
// %bb.3:
	ldr	x0, [sp, #16]
	bl	__clang_call_terminate
.Lfunc_end7:
	.size	_ZNSt6__ndk16vectorIiNS_9allocatorIiEEED2Ev, .Lfunc_end7-_ZNSt6__ndk16vectorIiNS_9allocatorIiEEED2Ev
	.cfi_endproc
	.section	.gcc_except_table,"a",@progbits
	.p2align	2
GCC_except_table7:
.Lexception4:
	.byte	255                     // @LPStart Encoding = omit
	.byte	156                     // @TType Encoding = indirect pcrel sdata8
	.uleb128 .Lttbase1-.Lttbaseref1
.Lttbaseref1:
	.byte	1                       // Call site Encoding = uleb128
	.uleb128 .Lcst_end4-.Lcst_begin4
.Lcst_begin4:
	.uleb128 .Ltmp25-.Lfunc_begin4  // >> Call Site 1 <<
	.uleb128 .Ltmp26-.Ltmp25        //   Call between .Ltmp25 and .Ltmp26
	.uleb128 .Ltmp27-.Lfunc_begin4  //     jumps to .Ltmp27
	.byte	1                       //   On action: 1
.Lcst_end4:
	.byte	1                       // >> Action Record 1 <<
                                        //   Catch TypeInfo 1
	.byte	0                       //   No further actions
	.p2align	2
                                        // >> Catch TypeInfos <<
	.xword	0                       // TypeInfo 1
.Lttbase1:
	.p2align	2
                                        // -- End function
	.section	.text._ZNSt6__ndk16vectorIiNS_9allocatorIiEEE9push_backEOi,"axG",@progbits,_ZNSt6__ndk16vectorIiNS_9allocatorIiEEE9push_backEOi,comdat
	.hidden	_ZNSt6__ndk16vectorIiNS_9allocatorIiEEE9push_backEOi // -- Begin function _ZNSt6__ndk16vectorIiNS_9allocatorIiEEE9push_backEOi
	.weak	_ZNSt6__ndk16vectorIiNS_9allocatorIiEEE9push_backEOi
	.p2align	2
	.type	_ZNSt6__ndk16vectorIiNS_9allocatorIiEEE9push_backEOi,@function
_ZNSt6__ndk16vectorIiNS_9allocatorIiEEE9push_backEOi: // @_ZNSt6__ndk16vectorIiNS_9allocatorIiEEE9push_backEOi
	.cfi_startproc
// %bb.0:
	sub	sp, sp, #112            // =112
	stp	x29, x30, [sp, #96]     // 16-byte Folded Spill
	add	x29, sp, #96            // =96
	.cfi_def_cfa w29, 16
	.cfi_offset w30, -8
	.cfi_offset w29, -16
	stur	x0, [x29, #-8]
	stur	x1, [x29, #-16]
	ldur	x0, [x29, #-8]
	ldr	x1, [x0, #8]
	stur	x0, [x29, #-32]         // 8-byte Folded Spill
	stur	x1, [x29, #-40]         // 8-byte Folded Spill
	bl	_ZNSt6__ndk113__vector_baseIiNS_9allocatorIiEEE9__end_capEv
	ldr	x0, [x0]
	ldur	x1, [x29, #-40]         // 8-byte Folded Reload
	cmp	x1, x0
	cset	w8, lo
	tbnz	w8, #0, .LBB8_1
	b	.LBB8_2
.LBB8_1:
	sub	x8, x29, #17            // =17
	orr	x9, xzr, #0x4
	orr	x2, xzr, #0x1
	mov	x0, x8
	ldur	x1, [x29, #-32]         // 8-byte Folded Reload
	str	x8, [sp, #48]           // 8-byte Folded Spill
	str	x9, [sp, #40]           // 8-byte Folded Spill
	bl	_ZNSt6__ndk16vectorIiNS_9allocatorIiEEE24__RAII_IncreaseAnnotatorC2ERKS3_m
	ldur	x0, [x29, #-32]         // 8-byte Folded Reload
	bl	_ZNSt6__ndk113__vector_baseIiNS_9allocatorIiEEE7__allocEv
	ldur	x8, [x29, #-32]         // 8-byte Folded Reload
	ldr	x9, [x8, #8]
	str	x0, [sp, #32]           // 8-byte Folded Spill
	mov	x0, x9
	bl	_ZNSt6__ndk116__to_raw_pointerIiEEPT_S2_
	ldur	x8, [x29, #-16]
	str	x0, [sp, #24]           // 8-byte Folded Spill
	mov	x0, x8
	bl	_ZNSt6__ndk14moveIRiEEONS_16remove_referenceIT_E4typeEOS3_
	ldr	x1, [sp, #32]           // 8-byte Folded Reload
	str	x0, [sp, #16]           // 8-byte Folded Spill
	mov	x0, x1
	ldr	x1, [sp, #24]           // 8-byte Folded Reload
	ldr	x2, [sp, #16]           // 8-byte Folded Reload
	bl	_ZNSt6__ndk116allocator_traitsINS_9allocatorIiEEE9constructIiJiEEEvRS2_PT_DpOT0_
	ldr	x0, [sp, #48]           // 8-byte Folded Reload
	bl	_ZNSt6__ndk16vectorIiNS_9allocatorIiEEE24__RAII_IncreaseAnnotator6__doneEv
	ldur	x8, [x29, #-32]         // 8-byte Folded Reload
	ldr	x9, [x8, #8]
	ldr	x0, [sp, #40]           // 8-byte Folded Reload
	add	x9, x9, x0
	str	x9, [x8, #8]
	b	.LBB8_3
.LBB8_2:
	ldur	x0, [x29, #-16]
	bl	_ZNSt6__ndk14moveIRiEEONS_16remove_referenceIT_E4typeEOS3_
	ldur	x8, [x29, #-32]         // 8-byte Folded Reload
	str	x0, [sp, #8]            // 8-byte Folded Spill
	mov	x0, x8
	ldr	x1, [sp, #8]            // 8-byte Folded Reload
	bl	_ZNSt6__ndk16vectorIiNS_9allocatorIiEEE21__push_back_slow_pathIiEEvOT_
.LBB8_3:
	ldp	x29, x30, [sp, #96]     // 16-byte Folded Reload
	add	sp, sp, #112            // =112
	ret
.Lfunc_end8:
	.size	_ZNSt6__ndk16vectorIiNS_9allocatorIiEEE9push_backEOi, .Lfunc_end8-_ZNSt6__ndk16vectorIiNS_9allocatorIiEEE9push_backEOi
	.cfi_endproc
                                        // -- End function
	.section	.text._ZNSt6__ndk16vectorIbNS_9allocatorIbEEE9push_backERKb,"axG",@progbits,_ZNSt6__ndk16vectorIbNS_9allocatorIbEEE9push_backERKb,comdat
	.weak	_ZNSt6__ndk16vectorIbNS_9allocatorIbEEE9push_backERKb // -- Begin function _ZNSt6__ndk16vectorIbNS_9allocatorIbEEE9push_backERKb
	.p2align	2
	.type	_ZNSt6__ndk16vectorIbNS_9allocatorIbEEE9push_backERKb,@function
_ZNSt6__ndk16vectorIbNS_9allocatorIbEEE9push_backERKb: // @_ZNSt6__ndk16vectorIbNS_9allocatorIbEEE9push_backERKb
	.cfi_startproc
// %bb.0:
	sub	sp, sp, #96             // =96
	stp	x29, x30, [sp, #80]     // 16-byte Folded Spill
	add	x29, sp, #80            // =80
	.cfi_def_cfa w29, 16
	.cfi_offset w30, -8
	.cfi_offset w29, -16
	stur	x0, [x29, #-8]
	stur	x1, [x29, #-16]
	ldur	x0, [x29, #-8]
	ldr	x1, [x0, #8]
	str	x0, [sp, #40]           // 8-byte Folded Spill
	str	x1, [sp, #32]           // 8-byte Folded Spill
	bl	_ZNKSt6__ndk16vectorIbNS_9allocatorIbEEE8capacityEv
	ldr	x1, [sp, #32]           // 8-byte Folded Reload
	cmp	x1, x0
	cset	w8, eq
	tbnz	w8, #0, .LBB9_1
	b	.LBB9_2
.LBB9_1:
	ldr	x8, [sp, #40]           // 8-byte Folded Reload
	ldr	x9, [x8, #8]
	add	x1, x9, #1              // =1
	mov	x0, x8
	bl	_ZNKSt6__ndk16vectorIbNS_9allocatorIbEEE11__recommendEm
	ldr	x8, [sp, #40]           // 8-byte Folded Reload
	str	x0, [sp, #24]           // 8-byte Folded Spill
	mov	x0, x8
	ldr	x1, [sp, #24]           // 8-byte Folded Reload
	bl	_ZNSt6__ndk16vectorIbNS_9allocatorIbEEE7reserveEm
.LBB9_2:
	sub	x0, x29, #32            // =32
	ldr	x8, [sp, #40]           // 8-byte Folded Reload
	ldr	x9, [x8, #8]
	add	x9, x9, #1              // =1
	str	x9, [x8, #8]
	ldur	x9, [x29, #-16]
	ldrb	w10, [x9]
	str	x0, [sp, #16]           // 8-byte Folded Spill
	mov	x0, x8
	str	w10, [sp, #12]          // 4-byte Folded Spill
	bl	_ZNSt6__ndk16vectorIbNS_9allocatorIbEEE4backEv
	stur	x0, [x29, #-32]
	stur	x1, [x29, #-24]
	ldr	x0, [sp, #16]           // 8-byte Folded Reload
	ldr	w10, [sp, #12]          // 4-byte Folded Reload
	mov	w1, w10
	bl	_ZNSt6__ndk115__bit_referenceINS_6vectorIbNS_9allocatorIbEEEELb1EEaSEb
	ldp	x29, x30, [sp, #80]     // 16-byte Folded Reload
	add	sp, sp, #96             // =96
	ret
.Lfunc_end9:
	.size	_ZNSt6__ndk16vectorIbNS_9allocatorIbEEE9push_backERKb, .Lfunc_end9-_ZNSt6__ndk16vectorIbNS_9allocatorIbEEE9push_backERKb
	.cfi_endproc
                                        // -- End function
	.section	.text._ZNSt6__ndk16vectorIbNS_9allocatorIbEEED2Ev,"axG",@progbits,_ZNSt6__ndk16vectorIbNS_9allocatorIbEEED2Ev,comdat
	.weak	_ZNSt6__ndk16vectorIbNS_9allocatorIbEEED2Ev // -- Begin function _ZNSt6__ndk16vectorIbNS_9allocatorIbEEED2Ev
	.p2align	2
	.type	_ZNSt6__ndk16vectorIbNS_9allocatorIbEEED2Ev,@function
_ZNSt6__ndk16vectorIbNS_9allocatorIbEEED2Ev: // @_ZNSt6__ndk16vectorIbNS_9allocatorIbEEED2Ev
.Lfunc_begin5:
	.cfi_startproc
	.cfi_personality 156, DW.ref.__gxx_personality_v0
	.cfi_lsda 28, .Lexception5
// %bb.0:
	sub	sp, sp, #48             // =48
	stp	x29, x30, [sp, #32]     // 16-byte Folded Spill
	add	x29, sp, #32            // =32
	.cfi_def_cfa w29, 16
	.cfi_offset w30, -8
	.cfi_offset w29, -16
	mov	x8, #0
	stur	x0, [x29, #-8]
	ldur	x0, [x29, #-8]
	mov	x9, x0
	ldr	x9, [x9]
	cmp	x9, x8
	cset	w10, ne
	str	x0, [sp, #16]           // 8-byte Folded Spill
	tbnz	w10, #0, .LBB10_1
	b	.LBB10_2
.LBB10_1:
	ldr	x0, [sp, #16]           // 8-byte Folded Reload
	bl	_ZNSt6__ndk16vectorIbNS_9allocatorIbEEE7__allocEv
	ldr	x8, [sp, #16]           // 8-byte Folded Reload
	ldr	x1, [x8]
	ldr	x8, [sp, #16]           // 8-byte Folded Reload
	str	x0, [sp, #8]            // 8-byte Folded Spill
	mov	x0, x8
	str	x1, [sp]                // 8-byte Folded Spill
	bl	_ZNSt6__ndk16vectorIbNS_9allocatorIbEEE5__capEv
	ldr	x2, [x0]
	ldr	x0, [sp, #8]            // 8-byte Folded Reload
	ldr	x1, [sp]                // 8-byte Folded Reload
	bl	_ZNSt6__ndk116allocator_traitsINS_9allocatorImEEE10deallocateERS2_Pmm
.LBB10_2:
.Ltmp28:
	ldr	x0, [sp, #16]           // 8-byte Folded Reload
	bl	_ZNSt6__ndk16vectorIbNS_9allocatorIbEEE26__invalidate_all_iteratorsEv
.Ltmp29:
	b	.LBB10_3
.LBB10_3:
	ldp	x29, x30, [sp, #32]     // 16-byte Folded Reload
	add	sp, sp, #48             // =48
	ret
.LBB10_4:
.Ltmp30:
	bl	__clang_call_terminate
.Lfunc_end10:
	.size	_ZNSt6__ndk16vectorIbNS_9allocatorIbEEED2Ev, .Lfunc_end10-_ZNSt6__ndk16vectorIbNS_9allocatorIbEEED2Ev
	.cfi_endproc
	.section	.gcc_except_table,"a",@progbits
	.p2align	2
GCC_except_table10:
.Lexception5:
	.byte	255                     // @LPStart Encoding = omit
	.byte	156                     // @TType Encoding = indirect pcrel sdata8
	.uleb128 .Lttbase2-.Lttbaseref2
.Lttbaseref2:
	.byte	1                       // Call site Encoding = uleb128
	.uleb128 .Lcst_end5-.Lcst_begin5
.Lcst_begin5:
	.uleb128 .Ltmp28-.Lfunc_begin5  // >> Call Site 1 <<
	.uleb128 .Ltmp29-.Ltmp28        //   Call between .Ltmp28 and .Ltmp29
	.uleb128 .Ltmp30-.Lfunc_begin5  //     jumps to .Ltmp30
	.byte	1                       //   On action: 1
.Lcst_end5:
	.byte	1                       // >> Action Record 1 <<
                                        //   Catch TypeInfo 1
	.byte	0                       //   No further actions
	.p2align	2
                                        // >> Catch TypeInfos <<
	.xword	0                       // TypeInfo 1
.Lttbase2:
	.p2align	2
                                        // -- End function
	.section	.text._ZNSt6__ndk16vectorINS0_IiNS_9allocatorIiEEEENS1_IS3_EEED2Ev,"axG",@progbits,_ZNSt6__ndk16vectorINS0_IiNS_9allocatorIiEEEENS1_IS3_EEED2Ev,comdat
	.hidden	_ZNSt6__ndk16vectorINS0_IiNS_9allocatorIiEEEENS1_IS3_EEED2Ev // -- Begin function _ZNSt6__ndk16vectorINS0_IiNS_9allocatorIiEEEENS1_IS3_EEED2Ev
	.weak	_ZNSt6__ndk16vectorINS0_IiNS_9allocatorIiEEEENS1_IS3_EEED2Ev
	.p2align	2
	.type	_ZNSt6__ndk16vectorINS0_IiNS_9allocatorIiEEEENS1_IS3_EEED2Ev,@function
_ZNSt6__ndk16vectorINS0_IiNS_9allocatorIiEEEENS1_IS3_EEED2Ev: // @_ZNSt6__ndk16vectorINS0_IiNS_9allocatorIiEEEENS1_IS3_EEED2Ev
.Lfunc_begin6:
	.cfi_startproc
	.cfi_personality 156, DW.ref.__gxx_personality_v0
	.cfi_lsda 28, .Lexception6
// %bb.0:
	sub	sp, sp, #48             // =48
	stp	x29, x30, [sp, #32]     // 16-byte Folded Spill
	add	x29, sp, #32            // =32
	.cfi_def_cfa w29, 16
	.cfi_offset w30, -8
	.cfi_offset w29, -16
	stur	x0, [x29, #-8]
	ldur	x0, [x29, #-8]
.Ltmp31:
	str	x0, [sp]                // 8-byte Folded Spill
	bl	_ZNKSt6__ndk16vectorINS0_IiNS_9allocatorIiEEEENS1_IS3_EEE17__annotate_deleteEv
.Ltmp32:
	b	.LBB11_1
.LBB11_1:
	ldr	x0, [sp]                // 8-byte Folded Reload
	bl	_ZNSt6__ndk113__vector_baseINS_6vectorIiNS_9allocatorIiEEEENS2_IS4_EEED2Ev
	ldp	x29, x30, [sp, #32]     // 16-byte Folded Reload
	add	sp, sp, #48             // =48
	ret
.LBB11_2:
.Ltmp33:
	mov	w8, w1
	str	x0, [sp, #16]
	str	w8, [sp, #12]
	ldr	x0, [sp]                // 8-byte Folded Reload
	bl	_ZNSt6__ndk113__vector_baseINS_6vectorIiNS_9allocatorIiEEEENS2_IS4_EEED2Ev
// %bb.3:
	ldr	x0, [sp, #16]
	bl	__clang_call_terminate
.Lfunc_end11:
	.size	_ZNSt6__ndk16vectorINS0_IiNS_9allocatorIiEEEENS1_IS3_EEED2Ev, .Lfunc_end11-_ZNSt6__ndk16vectorINS0_IiNS_9allocatorIiEEEENS1_IS3_EEED2Ev
	.cfi_endproc
	.section	.gcc_except_table,"a",@progbits
	.p2align	2
GCC_except_table11:
.Lexception6:
	.byte	255                     // @LPStart Encoding = omit
	.byte	156                     // @TType Encoding = indirect pcrel sdata8
	.uleb128 .Lttbase3-.Lttbaseref3
.Lttbaseref3:
	.byte	1                       // Call site Encoding = uleb128
	.uleb128 .Lcst_end6-.Lcst_begin6
.Lcst_begin6:
	.uleb128 .Ltmp31-.Lfunc_begin6  // >> Call Site 1 <<
	.uleb128 .Ltmp32-.Ltmp31        //   Call between .Ltmp31 and .Ltmp32
	.uleb128 .Ltmp33-.Lfunc_begin6  //     jumps to .Ltmp33
	.byte	1                       //   On action: 1
.Lcst_end6:
	.byte	1                       // >> Action Record 1 <<
                                        //   Catch TypeInfo 1
	.byte	0                       //   No further actions
	.p2align	2
                                        // >> Catch TypeInfos <<
	.xword	0                       // TypeInfo 1
.Lttbase3:
	.p2align	2
                                        // -- End function
	.text
	.globl	_ZN5Grafo8busquedaEv    // -- Begin function _ZN5Grafo8busquedaEv
	.p2align	2
	.type	_ZN5Grafo8busquedaEv,@function
_ZN5Grafo8busquedaEv:                   // @_ZN5Grafo8busquedaEv
.Lfunc_begin7:
	.cfi_startproc
	.cfi_personality 156, DW.ref.__gxx_personality_v0
	.cfi_lsda 28, .Lexception7
// %bb.0:
	sub	sp, sp, #192            // =192
	stp	x29, x30, [sp, #176]    // 16-byte Folded Spill
	add	x29, sp, #176           // =176
	.cfi_def_cfa w29, 16
	.cfi_offset w30, -8
	.cfi_offset w29, -16
	mov	w8, #0
	orr	w9, wzr, #0x1
	stur	x0, [x29, #-8]
	ldur	x0, [x29, #-8]
	stur	wzr, [x29, #-12]
	str	w8, [sp, #88]           // 4-byte Folded Spill
	str	w9, [sp, #84]           // 4-byte Folded Spill
	str	x0, [sp, #72]           // 8-byte Folded Spill
.LBB12_1:                               // =>This Loop Header: Depth=1
                                        //     Child Loop BB12_3 Depth 2
                                        //       Child Loop BB12_5 Depth 3
                                        //       Child Loop BB12_12 Depth 3
	ldur	w8, [x29, #-12]
	ldr	x9, [sp, #72]           // 8-byte Folded Reload
	ldr	w10, [x9, #96]
	subs	w10, w10, #2            // =2
	cmp	w8, w10
	cset	w8, lt
	tbnz	w8, #0, .LBB12_2
	b	.LBB12_26
.LBB12_2:                               //   in Loop: Header=BB12_1 Depth=1
	ldur	w8, [x29, #-12]
	add	w8, w8, #1              // =1
	stur	w8, [x29, #-16]
.LBB12_3:                               //   Parent Loop BB12_1 Depth=1
                                        // =>  This Loop Header: Depth=2
                                        //       Child Loop BB12_5 Depth 3
                                        //       Child Loop BB12_12 Depth 3
	ldur	w8, [x29, #-16]
	ldr	x9, [sp, #72]           // 8-byte Folded Reload
	ldr	w10, [x9, #96]
	add	w10, w10, #1            // =1
	cmp	w8, w10
	cset	w8, lt
	tbnz	w8, #0, .LBB12_4
	b	.LBB12_24
.LBB12_4:                               //   in Loop: Header=BB12_3 Depth=2
	ldr	w8, [sp, #88]           // 4-byte Folded Reload
	sturb	w8, [x29, #-17]
	stur	wzr, [x29, #-24]
.LBB12_5:                               //   Parent Loop BB12_1 Depth=1
                                        //     Parent Loop BB12_3 Depth=2
                                        // =>    This Inner Loop Header: Depth=3
	orr	x1, xzr, #0x1
	ldur	w8, [x29, #-24]
	mov	w9, w8
	sxtw	x9, w9
	ldr	x10, [sp, #72]          // 8-byte Folded Reload
	mov	x0, x10
	str	x9, [sp, #64]           // 8-byte Folded Spill
	bl	_ZNSt6__ndk16vectorINS0_IiNS_9allocatorIiEEEENS1_IS3_EEEixEm
	bl	_ZNKSt6__ndk16vectorIiNS_9allocatorIiEEE4sizeEv
	ldr	x9, [sp, #64]           // 8-byte Folded Reload
	cmp	x9, x0
	cset	w8, lo
	tbnz	w8, #0, .LBB12_6
	b	.LBB12_10
.LBB12_6:                               //   in Loop: Header=BB12_5 Depth=3
	ldr	x8, [sp, #72]           // 8-byte Folded Reload
	ldur	w9, [x29, #-12]
	mov	w10, w9
	sxtw	x1, w10
	mov	x0, x8
	bl	_ZNSt6__ndk16vectorINS0_IiNS_9allocatorIiEEEENS1_IS3_EEEixEm
	ldur	w9, [x29, #-24]
	mov	w8, w9
	sxtw	x1, w8
	bl	_ZNSt6__ndk16vectorIiNS_9allocatorIiEEEixEm
	ldr	w9, [x0]
	ldur	w11, [x29, #-16]
	cmp	w9, w11
	cset	w9, eq
	tbnz	w9, #0, .LBB12_7
	b	.LBB12_8
.LBB12_7:                               //   in Loop: Header=BB12_5 Depth=3
	ldr	w8, [sp, #84]           // 4-byte Folded Reload
	sturb	w8, [x29, #-17]
.LBB12_8:                               //   in Loop: Header=BB12_5 Depth=3
// %bb.9:                               //   in Loop: Header=BB12_5 Depth=3
	ldur	w8, [x29, #-24]
	add	w8, w8, #1              // =1
	stur	w8, [x29, #-24]
	b	.LBB12_5
.LBB12_10:                              //   in Loop: Header=BB12_3 Depth=2
	ldurb	w8, [x29, #-17]
	tbnz	w8, #0, .LBB12_22
// %bb.11:                              //   in Loop: Header=BB12_3 Depth=2
	stur	wzr, [x29, #-28]
.LBB12_12:                              //   Parent Loop BB12_1 Depth=1
                                        //     Parent Loop BB12_3 Depth=2
                                        // =>    This Inner Loop Header: Depth=3
	orr	x1, xzr, #0x1
	ldur	w8, [x29, #-28]
	mov	w9, w8
	sxtw	x9, w9
	ldr	x10, [sp, #72]          // 8-byte Folded Reload
	mov	x0, x10
	str	x9, [sp, #56]           // 8-byte Folded Spill
	bl	_ZNSt6__ndk16vectorINS0_IiNS_9allocatorIiEEEENS1_IS3_EEEixEm
	bl	_ZNKSt6__ndk16vectorIiNS_9allocatorIiEEE4sizeEv
	ldr	x9, [sp, #56]           // 8-byte Folded Reload
	cmp	x9, x0
	cset	w8, lo
	tbnz	w8, #0, .LBB12_13
	b	.LBB12_21
.LBB12_13:                              //   in Loop: Header=BB12_12 Depth=3
	sub	x0, x29, #48            // =48
	mov	w8, #-1
	mov	x9, #72
	ldr	x10, [sp, #72]          // 8-byte Folded Reload
	add	x9, x10, x9
	ldur	w11, [x29, #-12]
	mov	w12, w11
	sxtw	x1, w12
	str	x0, [sp, #48]           // 8-byte Folded Spill
	mov	x0, x10
	str	w8, [sp, #44]           // 4-byte Folded Spill
	str	x9, [sp, #32]           // 8-byte Folded Spill
	bl	_ZNSt6__ndk16vectorINS0_IiNS_9allocatorIiEEEENS1_IS3_EEEixEm
	ldur	w8, [x29, #-28]
	mov	w9, w8
	sxtw	x1, w9
	bl	_ZNSt6__ndk16vectorIiNS_9allocatorIiEEEixEm
	ldr	w8, [x0]
	mov	w9, w8
	sxtw	x1, w9
	ldr	x0, [sp, #32]           // 8-byte Folded Reload
	bl	_ZNSt6__ndk16vectorIbNS_9allocatorIbEEEixEm
	stur	x0, [x29, #-48]
	stur	x1, [x29, #-40]
	ldr	x0, [sp, #48]           // 8-byte Folded Reload
	bl	_ZNKSt6__ndk115__bit_referenceINS_6vectorIbNS_9allocatorIbEEEELb1EEcvbEv
	ldr	w8, [sp, #44]           // 4-byte Folded Reload
	eor	w11, w0, w8
	tbnz	w11, #0, .LBB12_14
	b	.LBB12_19
.LBB12_14:                              //   in Loop: Header=BB12_12 Depth=3
	sub	x8, x29, #72            // =72
	ldr	x9, [sp, #72]           // 8-byte Folded Reload
	ldur	w10, [x29, #-12]
	mov	w11, w10
	sxtw	x1, w11
	mov	x0, x9
	str	x8, [sp, #24]           // 8-byte Folded Spill
	bl	_ZNSt6__ndk16vectorINS0_IiNS_9allocatorIiEEEENS1_IS3_EEEixEm
	ldur	w10, [x29, #-28]
	mov	w8, w10
	sxtw	x1, w8
	bl	_ZNSt6__ndk16vectorIiNS_9allocatorIiEEEixEm
	ldr	w10, [x0]
	subs	w1, w10, #1             // =1
	ldur	w2, [x29, #-16]
	ldur	w3, [x29, #-12]
	ldr	x8, [sp, #72]           // 8-byte Folded Reload
	ldr	x0, [sp, #24]           // 8-byte Folded Reload
	str	w1, [sp, #20]           // 4-byte Folded Spill
	mov	x1, x8
	str	w2, [sp, #16]           // 4-byte Folded Spill
	str	w3, [sp, #12]           // 4-byte Folded Spill
	bl	_ZNSt6__ndk16vectorINS0_IiNS_9allocatorIiEEEENS1_IS3_EEEC2ERKS5_
.Ltmp34:
	ldr	x0, [sp, #72]           // 8-byte Folded Reload
	ldr	w1, [sp, #20]           // 4-byte Folded Reload
	ldr	w2, [sp, #16]           // 4-byte Folded Reload
	ldr	w3, [sp, #12]           // 4-byte Folded Reload
	ldr	x4, [sp, #24]           // 8-byte Folded Reload
	bl	_ZN5Grafo4recoEiiiNSt6__ndk16vectorINS1_IiNS0_9allocatorIiEEEENS2_IS4_EEEE
.Ltmp35:
	str	w0, [sp, #8]            // 4-byte Folded Spill
	b	.LBB12_15
.LBB12_15:                              //   in Loop: Header=BB12_12 Depth=3
	sub	x0, x29, #72            // =72
	bl	_ZNSt6__ndk16vectorINS0_IiNS_9allocatorIiEEEENS1_IS3_EEED2Ev
	ldr	w8, [sp, #8]            // 4-byte Folded Reload
	tbnz	w8, #0, .LBB12_16
	b	.LBB12_18
.LBB12_16:                              //   in Loop: Header=BB12_12 Depth=3
	orr	x8, xzr, #0x18
	orr	x9, xzr, #0x30
	ldr	x10, [sp, #72]          // 8-byte Folded Reload
	add	x0, x10, x9
	add	x8, x10, x8
	ldur	w11, [x29, #-12]
	mov	w9, w11
	sxtw	x1, w9
	str	x0, [sp]                // 8-byte Folded Spill
	mov	x0, x8
	bl	_ZNSt6__ndk16vectorINS0_IiNS_9allocatorIiEEEENS1_IS3_EEEixEm
	ldur	w11, [x29, #-28]
	mov	w8, w11
	sxtw	x1, w8
	bl	_ZNSt6__ndk16vectorIiNS_9allocatorIiEEEixEm
	ldr	w11, [x0]
	mov	w8, w11
	sxtw	x1, w8
	ldr	x0, [sp]                // 8-byte Folded Reload
	bl	_ZNSt6__ndk16vectorIiNS_9allocatorIiEEEixEm
	ldr	w11, [x0]
	add	w11, w11, #1            // =1
	str	w11, [x0]
	b	.LBB12_18
.LBB12_17:
.Ltmp36:
	sub	x8, x29, #72            // =72
	mov	w9, w1
	stur	x0, [x29, #-80]
	stur	w9, [x29, #-84]
	mov	x0, x8
	bl	_ZNSt6__ndk16vectorINS0_IiNS_9allocatorIiEEEENS1_IS3_EEED2Ev
	b	.LBB12_27
.LBB12_18:                              //   in Loop: Header=BB12_12 Depth=3
.LBB12_19:                              //   in Loop: Header=BB12_12 Depth=3
// %bb.20:                              //   in Loop: Header=BB12_12 Depth=3
	ldur	w8, [x29, #-28]
	add	w8, w8, #1              // =1
	stur	w8, [x29, #-28]
	b	.LBB12_12
.LBB12_21:                              //   in Loop: Header=BB12_3 Depth=2
.LBB12_22:                              //   in Loop: Header=BB12_3 Depth=2
// %bb.23:                              //   in Loop: Header=BB12_3 Depth=2
	ldur	w8, [x29, #-16]
	add	w8, w8, #1              // =1
	stur	w8, [x29, #-16]
	b	.LBB12_3
.LBB12_24:                              //   in Loop: Header=BB12_1 Depth=1
// %bb.25:                              //   in Loop: Header=BB12_1 Depth=1
	ldur	w8, [x29, #-12]
	add	w8, w8, #1              // =1
	stur	w8, [x29, #-12]
	b	.LBB12_1
.LBB12_26:
	ldp	x29, x30, [sp, #176]    // 16-byte Folded Reload
	add	sp, sp, #192            // =192
	ret
.LBB12_27:
	ldur	x0, [x29, #-80]
	bl	_Unwind_Resume
.Lfunc_end12:
	.size	_ZN5Grafo8busquedaEv, .Lfunc_end12-_ZN5Grafo8busquedaEv
	.cfi_endproc
	.section	.gcc_except_table,"a",@progbits
	.p2align	2
GCC_except_table12:
.Lexception7:
	.byte	255                     // @LPStart Encoding = omit
	.byte	255                     // @TType Encoding = omit
	.byte	1                       // Call site Encoding = uleb128
	.uleb128 .Lcst_end7-.Lcst_begin7
.Lcst_begin7:
	.uleb128 .Lfunc_begin7-.Lfunc_begin7 // >> Call Site 1 <<
	.uleb128 .Ltmp34-.Lfunc_begin7  //   Call between .Lfunc_begin7 and .Ltmp34
	.byte	0                       //     has no landing pad
	.byte	0                       //   On action: cleanup
	.uleb128 .Ltmp34-.Lfunc_begin7  // >> Call Site 2 <<
	.uleb128 .Ltmp35-.Ltmp34        //   Call between .Ltmp34 and .Ltmp35
	.uleb128 .Ltmp36-.Lfunc_begin7  //     jumps to .Ltmp36
	.byte	0                       //   On action: cleanup
	.uleb128 .Ltmp35-.Lfunc_begin7  // >> Call Site 3 <<
	.uleb128 .Lfunc_end12-.Ltmp35   //   Call between .Ltmp35 and .Lfunc_end12
	.byte	0                       //     has no landing pad
	.byte	0                       //   On action: cleanup
.Lcst_end7:
	.p2align	2
                                        // -- End function
	.section	.text._ZNSt6__ndk16vectorINS0_IiNS_9allocatorIiEEEENS1_IS3_EEEixEm,"axG",@progbits,_ZNSt6__ndk16vectorINS0_IiNS_9allocatorIiEEEENS1_IS3_EEEixEm,comdat
	.hidden	_ZNSt6__ndk16vectorINS0_IiNS_9allocatorIiEEEENS1_IS3_EEEixEm // -- Begin function _ZNSt6__ndk16vectorINS0_IiNS_9allocatorIiEEEENS1_IS3_EEEixEm
	.weak	_ZNSt6__ndk16vectorINS0_IiNS_9allocatorIiEEEENS1_IS3_EEEixEm
	.p2align	2
	.type	_ZNSt6__ndk16vectorINS0_IiNS_9allocatorIiEEEENS1_IS3_EEEixEm,@function
_ZNSt6__ndk16vectorINS0_IiNS_9allocatorIiEEEENS1_IS3_EEEixEm: // @_ZNSt6__ndk16vectorINS0_IiNS_9allocatorIiEEEENS1_IS3_EEEixEm
// %bb.0:
	sub	sp, sp, #16             // =16
	orr	x8, xzr, #0x18
	str	x0, [sp, #8]
	str	x1, [sp]
	ldr	x0, [sp, #8]
	ldr	x0, [x0]
	ldr	x1, [sp]
	mul	x8, x8, x1
	add	x8, x0, x8
	mov	x0, x8
	add	sp, sp, #16             // =16
	ret
.Lfunc_end13:
	.size	_ZNSt6__ndk16vectorINS0_IiNS_9allocatorIiEEEENS1_IS3_EEEixEm, .Lfunc_end13-_ZNSt6__ndk16vectorINS0_IiNS_9allocatorIiEEEENS1_IS3_EEEixEm
                                        // -- End function
	.section	.text._ZNKSt6__ndk16vectorIiNS_9allocatorIiEEE4sizeEv,"axG",@progbits,_ZNKSt6__ndk16vectorIiNS_9allocatorIiEEE4sizeEv,comdat
	.hidden	_ZNKSt6__ndk16vectorIiNS_9allocatorIiEEE4sizeEv // -- Begin function _ZNKSt6__ndk16vectorIiNS_9allocatorIiEEE4sizeEv
	.weak	_ZNKSt6__ndk16vectorIiNS_9allocatorIiEEE4sizeEv
	.p2align	2
	.type	_ZNKSt6__ndk16vectorIiNS_9allocatorIiEEE4sizeEv,@function
_ZNKSt6__ndk16vectorIiNS_9allocatorIiEEE4sizeEv: // @_ZNKSt6__ndk16vectorIiNS_9allocatorIiEEE4sizeEv
// %bb.0:
	sub	sp, sp, #16             // =16
	orr	x8, xzr, #0x4
	str	x0, [sp, #8]
	ldr	x0, [sp, #8]
	ldr	x9, [x0, #8]
	ldr	x0, [x0]
	subs	x9, x9, x0
	sdiv	x0, x9, x8
	add	sp, sp, #16             // =16
	ret
.Lfunc_end14:
	.size	_ZNKSt6__ndk16vectorIiNS_9allocatorIiEEE4sizeEv, .Lfunc_end14-_ZNKSt6__ndk16vectorIiNS_9allocatorIiEEE4sizeEv
                                        // -- End function
	.section	.text._ZNSt6__ndk16vectorIiNS_9allocatorIiEEEixEm,"axG",@progbits,_ZNSt6__ndk16vectorIiNS_9allocatorIiEEEixEm,comdat
	.hidden	_ZNSt6__ndk16vectorIiNS_9allocatorIiEEEixEm // -- Begin function _ZNSt6__ndk16vectorIiNS_9allocatorIiEEEixEm
	.weak	_ZNSt6__ndk16vectorIiNS_9allocatorIiEEEixEm
	.p2align	2
	.type	_ZNSt6__ndk16vectorIiNS_9allocatorIiEEEixEm,@function
_ZNSt6__ndk16vectorIiNS_9allocatorIiEEEixEm: // @_ZNSt6__ndk16vectorIiNS_9allocatorIiEEEixEm
// %bb.0:
	sub	sp, sp, #16             // =16
	orr	x8, xzr, #0x4
	str	x0, [sp, #8]
	str	x1, [sp]
	ldr	x0, [sp, #8]
	ldr	x0, [x0]
	ldr	x1, [sp]
	mul	x8, x8, x1
	add	x8, x0, x8
	mov	x0, x8
	add	sp, sp, #16             // =16
	ret
.Lfunc_end15:
	.size	_ZNSt6__ndk16vectorIiNS_9allocatorIiEEEixEm, .Lfunc_end15-_ZNSt6__ndk16vectorIiNS_9allocatorIiEEEixEm
                                        // -- End function
	.section	.text._ZNSt6__ndk16vectorIbNS_9allocatorIbEEEixEm,"axG",@progbits,_ZNSt6__ndk16vectorIbNS_9allocatorIbEEEixEm,comdat
	.hidden	_ZNSt6__ndk16vectorIbNS_9allocatorIbEEEixEm // -- Begin function _ZNSt6__ndk16vectorIbNS_9allocatorIbEEEixEm
	.weak	_ZNSt6__ndk16vectorIbNS_9allocatorIbEEEixEm
	.p2align	2
	.type	_ZNSt6__ndk16vectorIbNS_9allocatorIbEEEixEm,@function
_ZNSt6__ndk16vectorIbNS_9allocatorIbEEEixEm: // @_ZNSt6__ndk16vectorIbNS_9allocatorIbEEEixEm
// %bb.0:
	sub	sp, sp, #48             // =48
	stp	x29, x30, [sp, #32]     // 16-byte Folded Spill
	add	x29, sp, #32            // =32
	str	x0, [sp, #8]
	str	x1, [sp]
	ldr	x0, [sp, #8]
	ldr	x1, [sp]
	bl	_ZNSt6__ndk16vectorIbNS_9allocatorIbEEE10__make_refEm
	str	x0, [sp, #16]
	str	x1, [sp, #24]
	ldr	x0, [sp, #16]
	ldr	x1, [sp, #24]
	ldp	x29, x30, [sp, #32]     // 16-byte Folded Reload
	add	sp, sp, #48             // =48
	ret
.Lfunc_end16:
	.size	_ZNSt6__ndk16vectorIbNS_9allocatorIbEEEixEm, .Lfunc_end16-_ZNSt6__ndk16vectorIbNS_9allocatorIbEEEixEm
                                        // -- End function
	.section	.text._ZNKSt6__ndk115__bit_referenceINS_6vectorIbNS_9allocatorIbEEEELb1EEcvbEv,"axG",@progbits,_ZNKSt6__ndk115__bit_referenceINS_6vectorIbNS_9allocatorIbEEEELb1EEcvbEv,comdat
	.hidden	_ZNKSt6__ndk115__bit_referenceINS_6vectorIbNS_9allocatorIbEEEELb1EEcvbEv // -- Begin function _ZNKSt6__ndk115__bit_referenceINS_6vectorIbNS_9allocatorIbEEEELb1EEcvbEv
	.weak	_ZNKSt6__ndk115__bit_referenceINS_6vectorIbNS_9allocatorIbEEEELb1EEcvbEv
	.p2align	2
	.type	_ZNKSt6__ndk115__bit_referenceINS_6vectorIbNS_9allocatorIbEEEELb1EEcvbEv,@function
_ZNKSt6__ndk115__bit_referenceINS_6vectorIbNS_9allocatorIbEEEELb1EEcvbEv: // @_ZNKSt6__ndk115__bit_referenceINS_6vectorIbNS_9allocatorIbEEEELb1EEcvbEv
// %bb.0:
	sub	sp, sp, #16             // =16
	mov	x8, #0
	str	x0, [sp, #8]
	ldr	x0, [sp, #8]
	mov	x9, x0
	ldr	x9, [x9]
	ldr	x9, [x9]
	ldr	x0, [x0, #8]
	and	x9, x9, x0
	cmp	x9, x8
	cset	w10, ne
	orr	w11, wzr, #0x1
	and	w10, w10, w11
	mov	w0, w10
	add	sp, sp, #16             // =16
	ret
.Lfunc_end17:
	.size	_ZNKSt6__ndk115__bit_referenceINS_6vectorIbNS_9allocatorIbEEEELb1EEcvbEv, .Lfunc_end17-_ZNKSt6__ndk115__bit_referenceINS_6vectorIbNS_9allocatorIbEEEELb1EEcvbEv
                                        // -- End function
	.text
	.globl	_ZN5Grafo4recoEiiiNSt6__ndk16vectorINS1_IiNS0_9allocatorIiEEEENS2_IS4_EEEE // -- Begin function _ZN5Grafo4recoEiiiNSt6__ndk16vectorINS1_IiNS0_9allocatorIiEEEENS2_IS4_EEEE
	.p2align	2
	.type	_ZN5Grafo4recoEiiiNSt6__ndk16vectorINS1_IiNS0_9allocatorIiEEEENS2_IS4_EEEE,@function
_ZN5Grafo4recoEiiiNSt6__ndk16vectorINS1_IiNS0_9allocatorIiEEEENS2_IS4_EEEE: // @_ZN5Grafo4recoEiiiNSt6__ndk16vectorINS1_IiNS0_9allocatorIiEEEENS2_IS4_EEEE
.Lfunc_begin8:
	.cfi_startproc
	.cfi_personality 156, DW.ref.__gxx_personality_v0
	.cfi_lsda 28, .Lexception8
// %bb.0:
	sub	sp, sp, #208            // =208
	stp	x29, x30, [sp, #192]    // 16-byte Folded Spill
	add	x29, sp, #192           // =192
	.cfi_def_cfa w29, 16
	.cfi_offset w30, -8
	.cfi_offset w29, -16
	stur	x0, [x29, #-16]
	stur	w1, [x29, #-20]
	stur	w2, [x29, #-24]
	stur	w3, [x29, #-28]
	ldur	x0, [x29, #-16]
	stur	wzr, [x29, #-32]
	str	x4, [sp, #96]           // 8-byte Folded Spill
	str	x0, [sp, #88]           // 8-byte Folded Spill
.LBB18_1:                               // =>This Inner Loop Header: Depth=1
	orr	x1, xzr, #0x1
	ldur	w8, [x29, #-32]
	mov	w9, w8
	sxtw	x9, w9
	ldr	x0, [sp, #96]           // 8-byte Folded Reload
	str	x9, [sp, #80]           // 8-byte Folded Spill
	bl	_ZNSt6__ndk16vectorINS0_IiNS_9allocatorIiEEEENS1_IS3_EEEixEm
	bl	_ZNKSt6__ndk16vectorIiNS_9allocatorIiEEE4sizeEv
	ldr	x9, [sp, #80]           // 8-byte Folded Reload
	cmp	x9, x0
	cset	w8, lo
	tbnz	w8, #0, .LBB18_2
	b	.LBB18_12
.LBB18_2:                               //   in Loop: Header=BB18_1 Depth=1
	sub	x0, x29, #48            // =48
	mov	x8, #72
	mov	w9, #0
	ldr	x10, [sp, #88]          // 8-byte Folded Reload
	add	x8, x10, x8
	ldur	w11, [x29, #-20]
	mov	w12, w11
	sxtw	x1, w12
	ldr	x12, [sp, #96]          // 8-byte Folded Reload
	str	x0, [sp, #72]           // 8-byte Folded Spill
	mov	x0, x12
	str	w9, [sp, #68]           // 4-byte Folded Spill
	str	x8, [sp, #56]           // 8-byte Folded Spill
	bl	_ZNSt6__ndk16vectorINS0_IiNS_9allocatorIiEEEENS1_IS3_EEEixEm
	ldur	w9, [x29, #-32]
	mov	w8, w9
	sxtw	x1, w8
	bl	_ZNSt6__ndk16vectorIiNS_9allocatorIiEEEixEm
	ldr	w9, [x0]
	subs	w9, w9, #1              // =1
	mov	w8, w9
	sxtw	x1, w8
	ldr	x0, [sp, #56]           // 8-byte Folded Reload
	bl	_ZNSt6__ndk16vectorIbNS_9allocatorIbEEEixEm
	stur	x0, [x29, #-48]
	stur	x1, [x29, #-40]
	ldr	x0, [sp, #72]           // 8-byte Folded Reload
	bl	_ZNKSt6__ndk115__bit_referenceINS_6vectorIbNS_9allocatorIbEEEELb1EEcvbEv
	ldr	w9, [sp, #68]           // 4-byte Folded Reload
	str	w9, [sp, #52]           // 4-byte Folded Spill
	tbnz	w0, #0, .LBB18_4
// %bb.3:                               //   in Loop: Header=BB18_1 Depth=1
	mov	w8, #0
	ldur	w9, [x29, #-20]
	mov	w10, w9
	sxtw	x1, w10
	ldr	x0, [sp, #96]           // 8-byte Folded Reload
	str	w8, [sp, #48]           // 4-byte Folded Spill
	bl	_ZNSt6__ndk16vectorINS0_IiNS_9allocatorIiEEEENS1_IS3_EEEixEm
	ldur	w8, [x29, #-32]
	mov	w10, w8
	sxtw	x1, w10
	bl	_ZNSt6__ndk16vectorIiNS_9allocatorIiEEEixEm
	ldr	w8, [x0]
	ldr	w9, [sp, #48]           // 4-byte Folded Reload
	cmp	w8, w9
	cset	w8, ne
	str	w8, [sp, #52]           // 4-byte Folded Spill
.LBB18_4:                               //   in Loop: Header=BB18_1 Depth=1
	ldr	w8, [sp, #52]           // 4-byte Folded Reload
	tbnz	w8, #0, .LBB18_5
	b	.LBB18_10
.LBB18_5:                               //   in Loop: Header=BB18_1 Depth=1
	sub	x8, x29, #72            // =72
	ldur	w9, [x29, #-20]
	mov	w10, w9
	sxtw	x1, w10
	ldr	x0, [sp, #96]           // 8-byte Folded Reload
	str	x8, [sp, #40]           // 8-byte Folded Spill
	bl	_ZNSt6__ndk16vectorINS0_IiNS_9allocatorIiEEEENS1_IS3_EEEixEm
	ldur	w9, [x29, #-32]
	mov	w8, w9
	sxtw	x1, w8
	bl	_ZNSt6__ndk16vectorIiNS_9allocatorIiEEEixEm
	ldr	w9, [x0]
	subs	w1, w9, #1              // =1
	ldur	w2, [x29, #-24]
	ldur	w3, [x29, #-20]
	ldr	x0, [sp, #40]           // 8-byte Folded Reload
	ldr	x8, [sp, #96]           // 8-byte Folded Reload
	str	w1, [sp, #36]           // 4-byte Folded Spill
	mov	x1, x8
	str	w2, [sp, #32]           // 4-byte Folded Spill
	str	w3, [sp, #28]           // 4-byte Folded Spill
	bl	_ZNSt6__ndk16vectorINS0_IiNS_9allocatorIiEEEENS1_IS3_EEEC2ERKS5_
.Ltmp41:
	ldr	x0, [sp, #88]           // 8-byte Folded Reload
	ldr	w1, [sp, #36]           // 4-byte Folded Reload
	ldr	w2, [sp, #32]           // 4-byte Folded Reload
	ldr	w3, [sp, #28]           // 4-byte Folded Reload
	ldr	x4, [sp, #40]           // 8-byte Folded Reload
	bl	_ZN5Grafo4recoEiiiNSt6__ndk16vectorINS1_IiNS0_9allocatorIiEEEENS2_IS4_EEEE
.Ltmp42:
	str	w0, [sp, #24]           // 4-byte Folded Spill
	b	.LBB18_6
.LBB18_6:                               //   in Loop: Header=BB18_1 Depth=1
	sub	x0, x29, #72            // =72
	bl	_ZNSt6__ndk16vectorINS0_IiNS_9allocatorIiEEEENS1_IS3_EEED2Ev
	ldr	w8, [sp, #24]           // 4-byte Folded Reload
	tbnz	w8, #0, .LBB18_7
	b	.LBB18_9
.LBB18_7:
	mov	w8, #-1
	orr	x9, xzr, #0x18
	orr	x10, xzr, #0x30
	ldr	x11, [sp, #88]          // 8-byte Folded Reload
	add	x0, x11, x10
	add	x9, x11, x9
	ldur	w12, [x29, #-20]
	mov	w10, w12
	sxtw	x1, w10
	str	x0, [sp, #16]           // 8-byte Folded Spill
	mov	x0, x9
	str	w8, [sp, #12]           // 4-byte Folded Spill
	bl	_ZNSt6__ndk16vectorINS0_IiNS_9allocatorIiEEEENS1_IS3_EEEixEm
	ldur	w8, [x29, #-32]
	mov	w9, w8
	sxtw	x1, w9
	bl	_ZNSt6__ndk16vectorIiNS_9allocatorIiEEEixEm
	ldr	w8, [x0]
	mov	w9, w8
	sxtw	x1, w9
	ldr	x0, [sp, #16]           // 8-byte Folded Reload
	bl	_ZNSt6__ndk16vectorIiNS_9allocatorIiEEEixEm
	ldr	w8, [x0]
	add	w8, w8, #1              // =1
	str	w8, [x0]
	orr	w8, wzr, #0x1
	ldr	w12, [sp, #12]          // 4-byte Folded Reload
	and	w8, w12, w8
	sturb	w8, [x29, #-1]
	b	.LBB18_13
.LBB18_8:
.Ltmp43:
	sub	x8, x29, #72            // =72
	mov	w9, w1
	stur	x0, [x29, #-80]
	stur	w9, [x29, #-84]
	mov	x0, x8
	bl	_ZNSt6__ndk16vectorINS0_IiNS_9allocatorIiEEEENS1_IS3_EEED2Ev
	b	.LBB18_14
.LBB18_9:                               //   in Loop: Header=BB18_1 Depth=1
.LBB18_10:                              //   in Loop: Header=BB18_1 Depth=1
// %bb.11:                              //   in Loop: Header=BB18_1 Depth=1
	ldur	w8, [x29, #-32]
	add	w8, w8, #1              // =1
	stur	w8, [x29, #-32]
	b	.LBB18_1
.LBB18_12:
	mov	w8, #0
	orr	w9, wzr, #0x1
	and	w8, w8, w9
	sturb	w8, [x29, #-1]
.LBB18_13:
	ldurb	w8, [x29, #-1]
	mov	w0, w8
	ldp	x29, x30, [sp, #192]    // 16-byte Folded Reload
	add	sp, sp, #208            // =208
	ret
.LBB18_14:
	ldur	x0, [x29, #-80]
	bl	_Unwind_Resume
.Lfunc_end18:
	.size	_ZN5Grafo4recoEiiiNSt6__ndk16vectorINS1_IiNS0_9allocatorIiEEEENS2_IS4_EEEE, .Lfunc_end18-_ZN5Grafo4recoEiiiNSt6__ndk16vectorINS1_IiNS0_9allocatorIiEEEENS2_IS4_EEEE
	.cfi_endproc
	.section	.gcc_except_table,"a",@progbits
	.p2align	2
GCC_except_table18:
.Lexception8:
	.byte	255                     // @LPStart Encoding = omit
	.byte	255                     // @TType Encoding = omit
	.byte	1                       // Call site Encoding = uleb128
	.uleb128 .Lcst_end8-.Lcst_begin8
.Lcst_begin8:
	.uleb128 .Lfunc_begin8-.Lfunc_begin8 // >> Call Site 1 <<
	.uleb128 .Ltmp41-.Lfunc_begin8  //   Call between .Lfunc_begin8 and .Ltmp41
	.byte	0                       //     has no landing pad
	.byte	0                       //   On action: cleanup
	.uleb128 .Ltmp41-.Lfunc_begin8  // >> Call Site 2 <<
	.uleb128 .Ltmp42-.Ltmp41        //   Call between .Ltmp41 and .Ltmp42
	.uleb128 .Ltmp43-.Lfunc_begin8  //     jumps to .Ltmp43
	.byte	0                       //   On action: cleanup
	.uleb128 .Ltmp42-.Lfunc_begin8  // >> Call Site 3 <<
	.uleb128 .Lfunc_end18-.Ltmp42   //   Call between .Ltmp42 and .Lfunc_end18
	.byte	0                       //     has no landing pad
	.byte	0                       //   On action: cleanup
.Lcst_end8:
	.p2align	2
                                        // -- End function
	.section	.text._ZNSt6__ndk16vectorINS0_IiNS_9allocatorIiEEEENS1_IS3_EEEC2ERKS5_,"axG",@progbits,_ZNSt6__ndk16vectorINS0_IiNS_9allocatorIiEEEENS1_IS3_EEEC2ERKS5_,comdat
	.weak	_ZNSt6__ndk16vectorINS0_IiNS_9allocatorIiEEEENS1_IS3_EEEC2ERKS5_ // -- Begin function _ZNSt6__ndk16vectorINS0_IiNS_9allocatorIiEEEENS1_IS3_EEEC2ERKS5_
	.p2align	2
	.type	_ZNSt6__ndk16vectorINS0_IiNS_9allocatorIiEEEENS1_IS3_EEEC2ERKS5_,@function
_ZNSt6__ndk16vectorINS0_IiNS_9allocatorIiEEEENS1_IS3_EEEC2ERKS5_: // @_ZNSt6__ndk16vectorINS0_IiNS_9allocatorIiEEEENS1_IS3_EEEC2ERKS5_
.Lfunc_begin9:
	.cfi_startproc
	.cfi_personality 156, DW.ref.__gxx_personality_v0
	.cfi_lsda 28, .Lexception9
// %bb.0:
	sub	sp, sp, #96             // =96
	stp	x29, x30, [sp, #80]     // 16-byte Folded Spill
	add	x29, sp, #80            // =80
	.cfi_def_cfa w29, 16
	.cfi_offset w30, -8
	.cfi_offset w29, -16
	mov	x8, #0
	sub	x9, x29, #17            // =17
	stur	x0, [x29, #-8]
	stur	x1, [x29, #-16]
	ldur	x0, [x29, #-8]
	ldur	x1, [x29, #-16]
	str	x0, [sp, #24]           // 8-byte Folded Spill
	mov	x0, x1
	str	x8, [sp, #16]           // 8-byte Folded Spill
	str	x9, [sp, #8]            // 8-byte Folded Spill
	bl	_ZNKSt6__ndk113__vector_baseINS_6vectorIiNS_9allocatorIiEEEENS2_IS4_EEE7__allocEv
	bl	_ZNSt6__ndk116allocator_traitsINS_9allocatorINS_6vectorIiNS1_IiEEEEEEE37select_on_container_copy_constructionERKS5_
	ldr	x0, [sp, #24]           // 8-byte Folded Reload
	ldr	x1, [sp, #8]            // 8-byte Folded Reload
	bl	_ZNSt6__ndk113__vector_baseINS_6vectorIiNS_9allocatorIiEEEENS2_IS4_EEEC2EOS5_
	ldur	x0, [x29, #-16]
	bl	_ZNKSt6__ndk16vectorINS0_IiNS_9allocatorIiEEEENS1_IS3_EEE4sizeEv
	stur	x0, [x29, #-32]
	ldur	x8, [x29, #-32]
	ldr	x9, [sp, #16]           // 8-byte Folded Reload
	cmp	x8, x9
	cset	w10, hi
	tbnz	w10, #0, .LBB19_1
	b	.LBB19_5
.LBB19_1:
	ldur	x1, [x29, #-32]
.Ltmp44:
	ldr	x0, [sp, #24]           // 8-byte Folded Reload
	bl	_ZNSt6__ndk16vectorINS0_IiNS_9allocatorIiEEEENS1_IS3_EEE11__vallocateEm
.Ltmp45:
	b	.LBB19_2
.LBB19_2:
	ldur	x8, [x29, #-16]
	ldr	x1, [x8]
	ldur	x8, [x29, #-16]
	ldr	x2, [x8, #8]
	ldur	x3, [x29, #-32]
.Ltmp46:
	ldr	x0, [sp, #24]           // 8-byte Folded Reload
	bl	_ZNSt6__ndk16vectorINS0_IiNS_9allocatorIiEEEENS1_IS3_EEE18__construct_at_endIPS3_EENS_9enable_ifIXsr21__is_forward_iteratorIT_EE5valueEvE4typeES9_S9_m
.Ltmp47:
	b	.LBB19_3
.LBB19_3:
	b	.LBB19_5
.LBB19_4:
.Ltmp48:
	mov	w8, w1
	str	x0, [sp, #40]
	str	w8, [sp, #36]
	ldr	x0, [sp, #24]           // 8-byte Folded Reload
	bl	_ZNSt6__ndk113__vector_baseINS_6vectorIiNS_9allocatorIiEEEENS2_IS4_EEED2Ev
	b	.LBB19_6
.LBB19_5:
	ldp	x29, x30, [sp, #80]     // 16-byte Folded Reload
	add	sp, sp, #96             // =96
	ret
.LBB19_6:
	ldr	x0, [sp, #40]
	bl	_Unwind_Resume
.Lfunc_end19:
	.size	_ZNSt6__ndk16vectorINS0_IiNS_9allocatorIiEEEENS1_IS3_EEEC2ERKS5_, .Lfunc_end19-_ZNSt6__ndk16vectorINS0_IiNS_9allocatorIiEEEENS1_IS3_EEEC2ERKS5_
	.cfi_endproc
	.section	.gcc_except_table,"a",@progbits
	.p2align	2
GCC_except_table19:
.Lexception9:
	.byte	255                     // @LPStart Encoding = omit
	.byte	255                     // @TType Encoding = omit
	.byte	1                       // Call site Encoding = uleb128
	.uleb128 .Lcst_end9-.Lcst_begin9
.Lcst_begin9:
	.uleb128 .Lfunc_begin9-.Lfunc_begin9 // >> Call Site 1 <<
	.uleb128 .Ltmp44-.Lfunc_begin9  //   Call between .Lfunc_begin9 and .Ltmp44
	.byte	0                       //     has no landing pad
	.byte	0                       //   On action: cleanup
	.uleb128 .Ltmp44-.Lfunc_begin9  // >> Call Site 2 <<
	.uleb128 .Ltmp47-.Ltmp44        //   Call between .Ltmp44 and .Ltmp47
	.uleb128 .Ltmp48-.Lfunc_begin9  //     jumps to .Ltmp48
	.byte	0                       //   On action: cleanup
	.uleb128 .Ltmp47-.Lfunc_begin9  // >> Call Site 3 <<
	.uleb128 .Lfunc_end19-.Ltmp47   //   Call between .Ltmp47 and .Lfunc_end19
	.byte	0                       //     has no landing pad
	.byte	0                       //   On action: cleanup
.Lcst_end9:
	.p2align	2
                                        // -- End function
	.text
	.globl	_ZN5Grafo7nodoAddEii    // -- Begin function _ZN5Grafo7nodoAddEii
	.p2align	2
	.type	_ZN5Grafo7nodoAddEii,@function
_ZN5Grafo7nodoAddEii:                   // @_ZN5Grafo7nodoAddEii
	.cfi_startproc
// %bb.0:
	sub	sp, sp, #48             // =48
	stp	x29, x30, [sp, #32]     // 16-byte Folded Spill
	add	x29, sp, #32            // =32
	.cfi_def_cfa w29, 16
	.cfi_offset w30, -8
	.cfi_offset w29, -16
	orr	x8, xzr, #0x18
	add	x9, sp, #16             // =16
	stur	x0, [x29, #-8]
	stur	w1, [x29, #-12]
	str	w2, [sp, #16]
	ldur	x0, [x29, #-8]
	add	x0, x0, x8
	ldur	w1, [x29, #-12]
	mov	w8, w1
	sxtw	x1, w8
	str	x9, [sp, #8]            // 8-byte Folded Spill
	bl	_ZNSt6__ndk16vectorINS0_IiNS_9allocatorIiEEEENS1_IS3_EEEixEm
	ldr	x1, [sp, #8]            // 8-byte Folded Reload
	bl	_ZNSt6__ndk16vectorIiNS_9allocatorIiEEE9push_backERKi
	ldp	x29, x30, [sp, #32]     // 16-byte Folded Reload
	add	sp, sp, #48             // =48
	ret
.Lfunc_end20:
	.size	_ZN5Grafo7nodoAddEii, .Lfunc_end20-_ZN5Grafo7nodoAddEii
	.cfi_endproc
                                        // -- End function
	.section	.text._ZNSt6__ndk16vectorIiNS_9allocatorIiEEE9push_backERKi,"axG",@progbits,_ZNSt6__ndk16vectorIiNS_9allocatorIiEEE9push_backERKi,comdat
	.hidden	_ZNSt6__ndk16vectorIiNS_9allocatorIiEEE9push_backERKi // -- Begin function _ZNSt6__ndk16vectorIiNS_9allocatorIiEEE9push_backERKi
	.weak	_ZNSt6__ndk16vectorIiNS_9allocatorIiEEE9push_backERKi
	.p2align	2
	.type	_ZNSt6__ndk16vectorIiNS_9allocatorIiEEE9push_backERKi,@function
_ZNSt6__ndk16vectorIiNS_9allocatorIiEEE9push_backERKi: // @_ZNSt6__ndk16vectorIiNS_9allocatorIiEEE9push_backERKi
	.cfi_startproc
// %bb.0:
	sub	sp, sp, #96             // =96
	stp	x29, x30, [sp, #80]     // 16-byte Folded Spill
	add	x29, sp, #80            // =80
	.cfi_def_cfa w29, 16
	.cfi_offset w30, -8
	.cfi_offset w29, -16
	stur	x0, [x29, #-8]
	stur	x1, [x29, #-16]
	ldur	x0, [x29, #-8]
	ldr	x1, [x0, #8]
	stur	x0, [x29, #-32]         // 8-byte Folded Spill
	str	x1, [sp, #40]           // 8-byte Folded Spill
	bl	_ZNSt6__ndk113__vector_baseIiNS_9allocatorIiEEE9__end_capEv
	ldr	x0, [x0]
	ldr	x1, [sp, #40]           // 8-byte Folded Reload
	cmp	x1, x0
	cset	w8, ne
	tbnz	w8, #0, .LBB21_1
	b	.LBB21_2
.LBB21_1:
	sub	x8, x29, #17            // =17
	orr	x9, xzr, #0x4
	orr	x2, xzr, #0x1
	mov	x0, x8
	ldur	x1, [x29, #-32]         // 8-byte Folded Reload
	str	x8, [sp, #32]           // 8-byte Folded Spill
	str	x9, [sp, #24]           // 8-byte Folded Spill
	bl	_ZNSt6__ndk16vectorIiNS_9allocatorIiEEE24__RAII_IncreaseAnnotatorC2ERKS3_m
	ldur	x0, [x29, #-32]         // 8-byte Folded Reload
	bl	_ZNSt6__ndk113__vector_baseIiNS_9allocatorIiEEE7__allocEv
	ldur	x8, [x29, #-32]         // 8-byte Folded Reload
	ldr	x9, [x8, #8]
	str	x0, [sp, #16]           // 8-byte Folded Spill
	mov	x0, x9
	bl	_ZNSt6__ndk116__to_raw_pointerIiEEPT_S2_
	ldur	x2, [x29, #-16]
	ldr	x1, [sp, #16]           // 8-byte Folded Reload
	str	x0, [sp, #8]            // 8-byte Folded Spill
	mov	x0, x1
	ldr	x1, [sp, #8]            // 8-byte Folded Reload
	bl	_ZNSt6__ndk116allocator_traitsINS_9allocatorIiEEE9constructIiJRKiEEEvRS2_PT_DpOT0_
	ldr	x0, [sp, #32]           // 8-byte Folded Reload
	bl	_ZNSt6__ndk16vectorIiNS_9allocatorIiEEE24__RAII_IncreaseAnnotator6__doneEv
	ldur	x8, [x29, #-32]         // 8-byte Folded Reload
	ldr	x9, [x8, #8]
	ldr	x0, [sp, #24]           // 8-byte Folded Reload
	add	x9, x9, x0
	str	x9, [x8, #8]
	b	.LBB21_3
.LBB21_2:
	ldur	x1, [x29, #-16]
	ldur	x0, [x29, #-32]         // 8-byte Folded Reload
	bl	_ZNSt6__ndk16vectorIiNS_9allocatorIiEEE21__push_back_slow_pathIRKiEEvOT_
.LBB21_3:
	ldp	x29, x30, [sp, #80]     // 16-byte Folded Reload
	add	sp, sp, #96             // =96
	ret
.Lfunc_end21:
	.size	_ZNSt6__ndk16vectorIiNS_9allocatorIiEEE9push_backERKi, .Lfunc_end21-_ZNSt6__ndk16vectorIiNS_9allocatorIiEEE9push_backERKi
	.cfi_endproc
                                        // -- End function
	.text
	.globl	_ZN5Grafo11printCallesEv // -- Begin function _ZN5Grafo11printCallesEv
	.p2align	2
	.type	_ZN5Grafo11printCallesEv,@function
_ZN5Grafo11printCallesEv:               // @_ZN5Grafo11printCallesEv
	.cfi_startproc
// %bb.0:
	sub	sp, sp, #112            // =112
	stp	x29, x30, [sp, #96]     // 16-byte Folded Spill
	add	x29, sp, #96            // =96
	.cfi_def_cfa w29, 16
	.cfi_offset w30, -8
	.cfi_offset w29, -16
	adrp	x8, :got:_ZNSt6__ndk14coutE
	ldr	x8, [x8, :got_lo12:_ZNSt6__ndk14coutE]
	adrp	x9, .L.str
	add	x9, x9, :lo12:.L.str
	adrp	x10, .L.str.1
	add	x10, x10, :lo12:.L.str.1
	stur	x0, [x29, #-8]
	ldur	x0, [x29, #-8]
	stur	wzr, [x29, #-12]
	stur	x8, [x29, #-24]         // 8-byte Folded Spill
	stur	x9, [x29, #-32]         // 8-byte Folded Spill
	stur	x10, [x29, #-40]        // 8-byte Folded Spill
	str	x0, [sp, #48]           // 8-byte Folded Spill
.LBB22_1:                               // =>This Inner Loop Header: Depth=1
	ldur	w8, [x29, #-12]
	ldr	x9, [sp, #48]           // 8-byte Folded Reload
	ldr	w10, [x9, #96]
	cmp	w8, w10
	cset	w8, lt
	tbnz	w8, #0, .LBB22_2
	b	.LBB22_4
.LBB22_2:                               //   in Loop: Header=BB22_1 Depth=1
	orr	x1, xzr, #0x1
	mov	x8, #0
	orr	x9, xzr, #0x18
	ldur	w10, [x29, #-12]
	ldur	x0, [x29, #-24]         // 8-byte Folded Reload
	str	x1, [sp, #40]           // 8-byte Folded Spill
	mov	w1, w10
	str	x8, [sp, #32]           // 8-byte Folded Spill
	str	x9, [sp, #24]           // 8-byte Folded Spill
	bl	_ZNSt6__ndk113basic_ostreamIcNS_11char_traitsIcEEElsEi
	ldur	x1, [x29, #-32]         // 8-byte Folded Reload
	bl	_ZNSt6__ndk1lsINS_11char_traitsIcEEEERNS_13basic_ostreamIcT_EES6_PKc
	ldr	x8, [sp, #48]           // 8-byte Folded Reload
	ldr	x9, [sp, #24]           // 8-byte Folded Reload
	add	x1, x8, x9
	ldur	w10, [x29, #-12]
	mov	w11, w10
	sxtw	x11, w11
	str	x0, [sp, #16]           // 8-byte Folded Spill
	mov	x0, x1
	mov	x1, x11
	bl	_ZNSt6__ndk16vectorINS0_IiNS_9allocatorIiEEEENS1_IS3_EEEixEm
	ldr	x1, [sp, #32]           // 8-byte Folded Reload
	bl	_ZNSt6__ndk16vectorIiNS_9allocatorIiEEEixEm
	ldr	w1, [x0]
	ldr	x0, [sp, #16]           // 8-byte Folded Reload
	bl	_ZNSt6__ndk113basic_ostreamIcNS_11char_traitsIcEEElsEi
	ldr	x8, [sp, #48]           // 8-byte Folded Reload
	ldr	x9, [sp, #24]           // 8-byte Folded Reload
	add	x11, x8, x9
	ldur	w10, [x29, #-12]
	mov	w12, w10
	sxtw	x1, w12
	str	x0, [sp, #8]            // 8-byte Folded Spill
	mov	x0, x11
	bl	_ZNSt6__ndk16vectorINS0_IiNS_9allocatorIiEEEENS1_IS3_EEEixEm
	ldr	x1, [sp, #40]           // 8-byte Folded Reload
	bl	_ZNSt6__ndk16vectorIiNS_9allocatorIiEEEixEm
	ldr	w1, [x0]
	ldr	x0, [sp, #8]            // 8-byte Folded Reload
	bl	_ZNSt6__ndk113basic_ostreamIcNS_11char_traitsIcEEElsEi
	ldur	x1, [x29, #-40]         // 8-byte Folded Reload
	bl	_ZNSt6__ndk1lsINS_11char_traitsIcEEEERNS_13basic_ostreamIcT_EES6_PKc
// %bb.3:                               //   in Loop: Header=BB22_1 Depth=1
	ldur	w8, [x29, #-12]
	add	w8, w8, #1              // =1
	stur	w8, [x29, #-12]
	b	.LBB22_1
.LBB22_4:
	ldp	x29, x30, [sp, #96]     // 16-byte Folded Reload
	add	sp, sp, #112            // =112
	ret
.Lfunc_end22:
	.size	_ZN5Grafo11printCallesEv, .Lfunc_end22-_ZN5Grafo11printCallesEv
	.cfi_endproc
                                        // -- End function
	.section	.text._ZNSt6__ndk1lsINS_11char_traitsIcEEEERNS_13basic_ostreamIcT_EES6_PKc,"axG",@progbits,_ZNSt6__ndk1lsINS_11char_traitsIcEEEERNS_13basic_ostreamIcT_EES6_PKc,comdat
	.weak	_ZNSt6__ndk1lsINS_11char_traitsIcEEEERNS_13basic_ostreamIcT_EES6_PKc // -- Begin function _ZNSt6__ndk1lsINS_11char_traitsIcEEEERNS_13basic_ostreamIcT_EES6_PKc
	.p2align	2
	.type	_ZNSt6__ndk1lsINS_11char_traitsIcEEEERNS_13basic_ostreamIcT_EES6_PKc,@function
_ZNSt6__ndk1lsINS_11char_traitsIcEEEERNS_13basic_ostreamIcT_EES6_PKc: // @_ZNSt6__ndk1lsINS_11char_traitsIcEEEERNS_13basic_ostreamIcT_EES6_PKc
	.cfi_startproc
// %bb.0:
	sub	sp, sp, #64             // =64
	stp	x29, x30, [sp, #48]     // 16-byte Folded Spill
	add	x29, sp, #48            // =48
	.cfi_def_cfa w29, 16
	.cfi_offset w30, -8
	.cfi_offset w29, -16
	stur	x0, [x29, #-8]
	stur	x1, [x29, #-16]
	ldur	x0, [x29, #-8]
	ldur	x1, [x29, #-16]
	ldur	x8, [x29, #-16]
	str	x0, [sp, #24]           // 8-byte Folded Spill
	mov	x0, x8
	str	x1, [sp, #16]           // 8-byte Folded Spill
	bl	_ZNSt6__ndk111char_traitsIcE6lengthEPKc
	ldr	x8, [sp, #24]           // 8-byte Folded Reload
	str	x0, [sp, #8]            // 8-byte Folded Spill
	mov	x0, x8
	ldr	x1, [sp, #16]           // 8-byte Folded Reload
	ldr	x2, [sp, #8]            // 8-byte Folded Reload
	bl	_ZNSt6__ndk124__put_character_sequenceIcNS_11char_traitsIcEEEERNS_13basic_ostreamIT_T0_EES7_PKS4_m
	ldp	x29, x30, [sp, #48]     // 16-byte Folded Reload
	add	sp, sp, #64             // =64
	ret
.Lfunc_end23:
	.size	_ZNSt6__ndk1lsINS_11char_traitsIcEEEERNS_13basic_ostreamIcT_EES6_PKc, .Lfunc_end23-_ZNSt6__ndk1lsINS_11char_traitsIcEEEERNS_13basic_ostreamIcT_EES6_PKc
	.cfi_endproc
                                        // -- End function
	.section	.text._ZNSt6__ndk113basic_ostreamIcNS_11char_traitsIcEEElsEi,"axG",@progbits,_ZNSt6__ndk113basic_ostreamIcNS_11char_traitsIcEEElsEi,comdat
	.weak	_ZNSt6__ndk113basic_ostreamIcNS_11char_traitsIcEEElsEi // -- Begin function _ZNSt6__ndk113basic_ostreamIcNS_11char_traitsIcEEElsEi
	.p2align	2
	.type	_ZNSt6__ndk113basic_ostreamIcNS_11char_traitsIcEEElsEi,@function
_ZNSt6__ndk113basic_ostreamIcNS_11char_traitsIcEEElsEi: // @_ZNSt6__ndk113basic_ostreamIcNS_11char_traitsIcEEElsEi
.Lfunc_begin10:
	.cfi_startproc
	.cfi_personality 156, DW.ref.__gxx_personality_v0
	.cfi_lsda 28, .Lexception10
// %bb.0:
	sub	sp, sp, #176            // =176
	stp	x29, x30, [sp, #160]    // 16-byte Folded Spill
	add	x29, sp, #160           // =160
	.cfi_def_cfa w29, 16
	.cfi_offset w30, -8
	.cfi_offset w29, -16
	sub	x8, x29, #32            // =32
	stur	x0, [x29, #-8]
	stur	w1, [x29, #-12]
	ldur	x0, [x29, #-8]
.Ltmp49:
	str	x0, [sp, #72]           // 8-byte Folded Spill
	mov	x0, x8
	ldr	x1, [sp, #72]           // 8-byte Folded Reload
	bl	_ZNSt6__ndk113basic_ostreamIcNS_11char_traitsIcEEE6sentryC2ERS3_
.Ltmp50:
	b	.LBB24_1
.LBB24_1:
.Ltmp52:
	sub	x0, x29, #32            // =32
	bl	_ZNKSt6__ndk113basic_ostreamIcNS_11char_traitsIcEEE6sentrycvbEv
.Ltmp53:
	str	w0, [sp, #68]           // 4-byte Folded Spill
	b	.LBB24_2
.LBB24_2:
	ldr	w8, [sp, #68]           // 4-byte Folded Reload
	tbnz	w8, #0, .LBB24_3
	b	.LBB24_19
.LBB24_3:
	ldr	x8, [sp, #72]           // 8-byte Folded Reload
	ldr	x9, [x8]
	ldur	x9, [x9, #-24]
	add	x9, x8, x9
.Ltmp54:
	mov	x0, x9
	bl	_ZNKSt6__ndk18ios_base5flagsEv
.Ltmp55:
	str	w0, [sp, #64]           // 4-byte Folded Spill
	b	.LBB24_4
.LBB24_4:
	sub	x8, x29, #64            // =64
	mov	w9, #74
	ldr	w10, [sp, #64]          // 4-byte Folded Reload
	and	w9, w10, w9
	stur	w9, [x29, #-48]
	ldr	x11, [sp, #72]          // 8-byte Folded Reload
	ldr	x12, [x11]
	ldur	x12, [x12, #-24]
	add	x12, x11, x12
.Ltmp56:
	mov	x0, x12
	bl	_ZNKSt6__ndk18ios_base6getlocEv
.Ltmp57:
	b	.LBB24_5
.LBB24_5:
.Ltmp58:
	sub	x0, x29, #64            // =64
	bl	_ZNSt6__ndk19use_facetINS_7num_putIcNS_19ostreambuf_iteratorIcNS_11char_traitsIcEEEEEEEERKT_RKNS_6localeE
.Ltmp59:
	str	x0, [sp, #56]           // 8-byte Folded Spill
	b	.LBB24_6
.LBB24_6:
	add	x0, sp, #80             // =80
	sub	x8, x29, #64            // =64
	str	x0, [sp, #48]           // 8-byte Folded Spill
	mov	x0, x8
	bl	_ZNSt6__ndk16localeD1Ev
	ldr	x8, [sp, #56]           // 8-byte Folded Reload
	stur	x8, [x29, #-56]
	ldur	x0, [x29, #-56]
	ldr	x9, [sp, #48]           // 8-byte Folded Reload
	str	x0, [sp, #40]           // 8-byte Folded Spill
	mov	x0, x9
	ldr	x1, [sp, #72]           // 8-byte Folded Reload
	bl	_ZNSt6__ndk119ostreambuf_iteratorIcNS_11char_traitsIcEEEC2ERNS_13basic_ostreamIcS2_EE
	ldr	x8, [sp, #72]           // 8-byte Folded Reload
	ldr	x9, [x8]
	ldur	x9, [x9, #-24]
	add	x9, x8, x9
	ldr	x0, [x8]
	ldur	x0, [x0, #-24]
	add	x0, x8, x0
.Ltmp61:
	str	x9, [sp, #32]           // 8-byte Folded Spill
	bl	_ZNKSt6__ndk19basic_iosIcNS_11char_traitsIcEEE4fillEv
.Ltmp62:
	str	w0, [sp, #28]           // 4-byte Folded Spill
	b	.LBB24_7
.LBB24_7:
	orr	w8, wzr, #0x40
	ldur	w9, [x29, #-48]
	cmp	w9, w8
	cset	w8, eq
	tbnz	w8, #0, .LBB24_9
// %bb.8:
	orr	w8, wzr, #0x8
	ldur	w9, [x29, #-48]
	cmp	w9, w8
	cset	w8, eq
	tbnz	w8, #0, .LBB24_9
	b	.LBB24_10
.LBB24_9:
	ldur	w8, [x29, #-12]
	mov	w9, w8
	ubfx	x9, x9, #0, #32
	str	x9, [sp, #16]           // 8-byte Folded Spill
	b	.LBB24_11
.LBB24_10:
	ldur	w8, [x29, #-12]
	mov	w9, w8
	sxtw	x9, w9
	str	x9, [sp, #16]           // 8-byte Folded Spill
.LBB24_11:
	ldr	x8, [sp, #16]           // 8-byte Folded Reload
	add	x9, sp, #80             // =80
	ldr	x1, [x9]
.Ltmp63:
	ldr	x0, [sp, #40]           // 8-byte Folded Reload
	ldr	x2, [sp, #32]           // 8-byte Folded Reload
	ldr	w3, [sp, #28]           // 4-byte Folded Reload
	mov	x4, x8
	bl	_ZNKSt6__ndk17num_putIcNS_19ostreambuf_iteratorIcNS_11char_traitsIcEEEEE3putES4_RNS_8ios_baseEcl
.Ltmp64:
	str	x0, [sp, #8]            // 8-byte Folded Spill
	b	.LBB24_12
.LBB24_12:
	sub	x8, x29, #72            // =72
	ldr	x0, [sp, #8]            // 8-byte Folded Reload
	str	x0, [x8]
	mov	x0, x8
	bl	_ZNKSt6__ndk119ostreambuf_iteratorIcNS_11char_traitsIcEEE6failedEv
	tbnz	w0, #0, .LBB24_13
	b	.LBB24_18
.LBB24_13:
	mov	w1, #5
	ldr	x8, [sp, #72]           // 8-byte Folded Reload
	ldr	x9, [x8]
	ldur	x9, [x9, #-24]
	add	x9, x8, x9
.Ltmp65:
	mov	x0, x9
	bl	_ZNSt6__ndk19basic_iosIcNS_11char_traitsIcEEE8setstateEj
.Ltmp66:
	b	.LBB24_14
.LBB24_14:
	b	.LBB24_18
.LBB24_15:
.Ltmp51:
	mov	w8, w1
	stur	x0, [x29, #-40]
	stur	w8, [x29, #-44]
	b	.LBB24_21
.LBB24_16:
.Ltmp67:
	mov	w8, w1
	stur	x0, [x29, #-40]
	stur	w8, [x29, #-44]
	b	.LBB24_20
.LBB24_17:
.Ltmp60:
	sub	x8, x29, #64            // =64
	mov	w9, w1
	stur	x0, [x29, #-40]
	stur	w9, [x29, #-44]
	mov	x0, x8
	bl	_ZNSt6__ndk16localeD1Ev
	b	.LBB24_20
.LBB24_18:
.LBB24_19:
	sub	x0, x29, #32            // =32
	bl	_ZNSt6__ndk113basic_ostreamIcNS_11char_traitsIcEEE6sentryD2Ev
	b	.LBB24_23
.LBB24_20:
	sub	x0, x29, #32            // =32
	bl	_ZNSt6__ndk113basic_ostreamIcNS_11char_traitsIcEEE6sentryD2Ev
.LBB24_21:
	ldur	x0, [x29, #-40]
	bl	__cxa_begin_catch
	ldr	x8, [sp, #72]           // 8-byte Folded Reload
	ldr	x9, [x8]
	ldur	x9, [x9, #-24]
	add	x9, x8, x9
.Ltmp68:
	mov	x0, x9
	bl	_ZNSt6__ndk18ios_base33__set_badbit_and_consider_rethrowEv
.Ltmp69:
	b	.LBB24_22
.LBB24_22:
	bl	__cxa_end_catch
.LBB24_23:
	ldr	x0, [sp, #72]           // 8-byte Folded Reload
	ldp	x29, x30, [sp, #160]    // 16-byte Folded Reload
	add	sp, sp, #176            // =176
	ret
.LBB24_24:
.Ltmp70:
	mov	w8, w1
	stur	x0, [x29, #-40]
	stur	w8, [x29, #-44]
.Ltmp71:
	bl	__cxa_end_catch
.Ltmp72:
	b	.LBB24_25
.LBB24_25:
// %bb.26:
	ldur	x0, [x29, #-40]
	bl	_Unwind_Resume
.LBB24_27:
.Ltmp73:
	bl	__clang_call_terminate
.Lfunc_end24:
	.size	_ZNSt6__ndk113basic_ostreamIcNS_11char_traitsIcEEElsEi, .Lfunc_end24-_ZNSt6__ndk113basic_ostreamIcNS_11char_traitsIcEEElsEi
	.cfi_endproc
	.section	.gcc_except_table,"a",@progbits
	.p2align	2
GCC_except_table24:
.Lexception10:
	.byte	255                     // @LPStart Encoding = omit
	.byte	156                     // @TType Encoding = indirect pcrel sdata8
	.uleb128 .Lttbase4-.Lttbaseref4
.Lttbaseref4:
	.byte	1                       // Call site Encoding = uleb128
	.uleb128 .Lcst_end10-.Lcst_begin10
.Lcst_begin10:
	.uleb128 .Ltmp49-.Lfunc_begin10 // >> Call Site 1 <<
	.uleb128 .Ltmp50-.Ltmp49        //   Call between .Ltmp49 and .Ltmp50
	.uleb128 .Ltmp51-.Lfunc_begin10 //     jumps to .Ltmp51
	.byte	1                       //   On action: 1
	.uleb128 .Ltmp52-.Lfunc_begin10 // >> Call Site 2 <<
	.uleb128 .Ltmp57-.Ltmp52        //   Call between .Ltmp52 and .Ltmp57
	.uleb128 .Ltmp67-.Lfunc_begin10 //     jumps to .Ltmp67
	.byte	1                       //   On action: 1
	.uleb128 .Ltmp58-.Lfunc_begin10 // >> Call Site 3 <<
	.uleb128 .Ltmp59-.Ltmp58        //   Call between .Ltmp58 and .Ltmp59
	.uleb128 .Ltmp60-.Lfunc_begin10 //     jumps to .Ltmp60
	.byte	1                       //   On action: 1
	.uleb128 .Ltmp61-.Lfunc_begin10 // >> Call Site 4 <<
	.uleb128 .Ltmp66-.Ltmp61        //   Call between .Ltmp61 and .Ltmp66
	.uleb128 .Ltmp67-.Lfunc_begin10 //     jumps to .Ltmp67
	.byte	1                       //   On action: 1
	.uleb128 .Ltmp66-.Lfunc_begin10 // >> Call Site 5 <<
	.uleb128 .Ltmp68-.Ltmp66        //   Call between .Ltmp66 and .Ltmp68
	.byte	0                       //     has no landing pad
	.byte	0                       //   On action: cleanup
	.uleb128 .Ltmp68-.Lfunc_begin10 // >> Call Site 6 <<
	.uleb128 .Ltmp69-.Ltmp68        //   Call between .Ltmp68 and .Ltmp69
	.uleb128 .Ltmp70-.Lfunc_begin10 //     jumps to .Ltmp70
	.byte	0                       //   On action: cleanup
	.uleb128 .Ltmp69-.Lfunc_begin10 // >> Call Site 7 <<
	.uleb128 .Ltmp71-.Ltmp69        //   Call between .Ltmp69 and .Ltmp71
	.byte	0                       //     has no landing pad
	.byte	0                       //   On action: cleanup
	.uleb128 .Ltmp71-.Lfunc_begin10 // >> Call Site 8 <<
	.uleb128 .Ltmp72-.Ltmp71        //   Call between .Ltmp71 and .Ltmp72
	.uleb128 .Ltmp73-.Lfunc_begin10 //     jumps to .Ltmp73
	.byte	1                       //   On action: 1
	.uleb128 .Ltmp72-.Lfunc_begin10 // >> Call Site 9 <<
	.uleb128 .Lfunc_end24-.Ltmp72   //   Call between .Ltmp72 and .Lfunc_end24
	.byte	0                       //     has no landing pad
	.byte	0                       //   On action: cleanup
.Lcst_end10:
	.byte	1                       // >> Action Record 1 <<
                                        //   Catch TypeInfo 1
	.byte	0                       //   No further actions
	.p2align	2
                                        // >> Catch TypeInfos <<
	.xword	0                       // TypeInfo 1
.Lttbase4:
	.p2align	2
                                        // -- End function
	.section	.text._ZNSt6__ndk113__vector_baseINS_6vectorIiNS_9allocatorIiEEEENS2_IS4_EEEC2Ev,"axG",@progbits,_ZNSt6__ndk113__vector_baseINS_6vectorIiNS_9allocatorIiEEEENS2_IS4_EEEC2Ev,comdat
	.hidden	_ZNSt6__ndk113__vector_baseINS_6vectorIiNS_9allocatorIiEEEENS2_IS4_EEEC2Ev // -- Begin function _ZNSt6__ndk113__vector_baseINS_6vectorIiNS_9allocatorIiEEEENS2_IS4_EEEC2Ev
	.weak	_ZNSt6__ndk113__vector_baseINS_6vectorIiNS_9allocatorIiEEEENS2_IS4_EEEC2Ev
	.p2align	2
	.type	_ZNSt6__ndk113__vector_baseINS_6vectorIiNS_9allocatorIiEEEENS2_IS4_EEEC2Ev,@function
_ZNSt6__ndk113__vector_baseINS_6vectorIiNS_9allocatorIiEEEENS2_IS4_EEEC2Ev: // @_ZNSt6__ndk113__vector_baseINS_6vectorIiNS_9allocatorIiEEEENS2_IS4_EEEC2Ev
.Lfunc_begin11:
	.cfi_startproc
	.cfi_personality 156, DW.ref.__gxx_personality_v0
	.cfi_lsda 28, .Lexception11
// %bb.0:
	sub	sp, sp, #48             // =48
	stp	x29, x30, [sp, #32]     // 16-byte Folded Spill
	add	x29, sp, #32            // =32
	.cfi_def_cfa w29, 16
	.cfi_offset w30, -8
	.cfi_offset w29, -16
	mov	x8, #0
	stur	x0, [x29, #-8]
	ldur	x0, [x29, #-8]
.Ltmp74:
	str	x0, [sp, #8]            // 8-byte Folded Spill
	str	x8, [sp]                // 8-byte Folded Spill
	bl	_ZNSt6__ndk120__vector_base_commonILb1EEC2Ev
.Ltmp75:
	b	.LBB25_1
.LBB25_1:
	add	x1, sp, #16             // =16
	orr	x8, xzr, #0x10
	ldr	x9, [sp, #8]            // 8-byte Folded Reload
	ldr	x10, [sp]               // 8-byte Folded Reload
	str	x10, [x9]
	ldr	x9, [sp, #8]            // 8-byte Folded Reload
	str	x10, [x9, #8]
	add	x0, x9, x8
	str	x10, [sp, #16]
.Ltmp76:
	bl	_ZNSt6__ndk117__compressed_pairIPNS_6vectorIiNS_9allocatorIiEEEENS2_IS4_EEEC2IDnLb1EEEOT_
.Ltmp77:
	b	.LBB25_2
.LBB25_2:
	ldp	x29, x30, [sp, #32]     // 16-byte Folded Reload
	add	sp, sp, #48             // =48
	ret
.LBB25_3:
.Ltmp78:
	bl	__clang_call_terminate
.Lfunc_end25:
	.size	_ZNSt6__ndk113__vector_baseINS_6vectorIiNS_9allocatorIiEEEENS2_IS4_EEEC2Ev, .Lfunc_end25-_ZNSt6__ndk113__vector_baseINS_6vectorIiNS_9allocatorIiEEEENS2_IS4_EEEC2Ev
	.cfi_endproc
	.section	.gcc_except_table,"a",@progbits
	.p2align	2
GCC_except_table25:
.Lexception11:
	.byte	255                     // @LPStart Encoding = omit
	.byte	156                     // @TType Encoding = indirect pcrel sdata8
	.uleb128 .Lttbase5-.Lttbaseref5
.Lttbaseref5:
	.byte	1                       // Call site Encoding = uleb128
	.uleb128 .Lcst_end11-.Lcst_begin11
.Lcst_begin11:
	.uleb128 .Ltmp74-.Lfunc_begin11 // >> Call Site 1 <<
	.uleb128 .Ltmp77-.Ltmp74        //   Call between .Ltmp74 and .Ltmp77
	.uleb128 .Ltmp78-.Lfunc_begin11 //     jumps to .Ltmp78
	.byte	1                       //   On action: 1
.Lcst_end11:
	.byte	1                       // >> Action Record 1 <<
                                        //   Catch TypeInfo 1
	.byte	0                       //   No further actions
	.p2align	2
                                        // >> Catch TypeInfos <<
	.xword	0                       // TypeInfo 1
.Lttbase5:
	.p2align	2
                                        // -- End function
	.section	.text._ZNSt6__ndk120__vector_base_commonILb1EEC2Ev,"axG",@progbits,_ZNSt6__ndk120__vector_base_commonILb1EEC2Ev,comdat
	.hidden	_ZNSt6__ndk120__vector_base_commonILb1EEC2Ev // -- Begin function _ZNSt6__ndk120__vector_base_commonILb1EEC2Ev
	.weak	_ZNSt6__ndk120__vector_base_commonILb1EEC2Ev
	.p2align	2
	.type	_ZNSt6__ndk120__vector_base_commonILb1EEC2Ev,@function
_ZNSt6__ndk120__vector_base_commonILb1EEC2Ev: // @_ZNSt6__ndk120__vector_base_commonILb1EEC2Ev
// %bb.0:
	sub	sp, sp, #16             // =16
	str	x0, [sp, #8]
	add	sp, sp, #16             // =16
	ret
.Lfunc_end26:
	.size	_ZNSt6__ndk120__vector_base_commonILb1EEC2Ev, .Lfunc_end26-_ZNSt6__ndk120__vector_base_commonILb1EEC2Ev
                                        // -- End function
	.section	.text.__clang_call_terminate,"axG",@progbits,__clang_call_terminate,comdat
	.hidden	__clang_call_terminate  // -- Begin function __clang_call_terminate
	.weak	__clang_call_terminate
	.p2align	2
	.type	__clang_call_terminate,@function
__clang_call_terminate:                 // @__clang_call_terminate
// %bb.0:
	str	x30, [sp, #-16]!        // 8-byte Folded Spill
	bl	__cxa_begin_catch
	bl	_ZSt9terminatev
.Lfunc_end27:
	.size	__clang_call_terminate, .Lfunc_end27-__clang_call_terminate
                                        // -- End function
	.section	.text._ZNSt6__ndk117__compressed_pairIPNS_6vectorIiNS_9allocatorIiEEEENS2_IS4_EEEC2IDnLb1EEEOT_,"axG",@progbits,_ZNSt6__ndk117__compressed_pairIPNS_6vectorIiNS_9allocatorIiEEEENS2_IS4_EEEC2IDnLb1EEEOT_,comdat
	.weak	_ZNSt6__ndk117__compressed_pairIPNS_6vectorIiNS_9allocatorIiEEEENS2_IS4_EEEC2IDnLb1EEEOT_ // -- Begin function _ZNSt6__ndk117__compressed_pairIPNS_6vectorIiNS_9allocatorIiEEEENS2_IS4_EEEC2IDnLb1EEEOT_
	.p2align	2
	.type	_ZNSt6__ndk117__compressed_pairIPNS_6vectorIiNS_9allocatorIiEEEENS2_IS4_EEEC2IDnLb1EEEOT_,@function
_ZNSt6__ndk117__compressed_pairIPNS_6vectorIiNS_9allocatorIiEEEENS2_IS4_EEEC2IDnLb1EEEOT_: // @_ZNSt6__ndk117__compressed_pairIPNS_6vectorIiNS_9allocatorIiEEEENS2_IS4_EEEC2IDnLb1EEEOT_
	.cfi_startproc
// %bb.0:
	sub	sp, sp, #48             // =48
	stp	x29, x30, [sp, #32]     // 16-byte Folded Spill
	add	x29, sp, #32            // =32
	.cfi_def_cfa w29, 16
	.cfi_offset w30, -8
	.cfi_offset w29, -16
	stur	x0, [x29, #-8]
	str	x1, [sp, #16]
	ldur	x0, [x29, #-8]
	ldr	x1, [sp, #16]
	str	x0, [sp, #8]            // 8-byte Folded Spill
	mov	x0, x1
	bl	_ZNSt6__ndk17forwardIDnEEOT_RNS_16remove_referenceIS1_E4typeE
	ldr	x1, [sp, #8]            // 8-byte Folded Reload
	str	x0, [sp]                // 8-byte Folded Spill
	mov	x0, x1
	ldr	x1, [sp]                // 8-byte Folded Reload
	bl	_ZNSt6__ndk122__compressed_pair_elemIPNS_6vectorIiNS_9allocatorIiEEEELi0ELb0EEC2IDnvEEOT_
	ldr	x0, [sp, #8]            // 8-byte Folded Reload
	bl	_ZNSt6__ndk122__compressed_pair_elemINS_9allocatorINS_6vectorIiNS1_IiEEEEEELi1ELb1EEC2Ev
	ldp	x29, x30, [sp, #32]     // 16-byte Folded Reload
	add	sp, sp, #48             // =48
	ret
.Lfunc_end28:
	.size	_ZNSt6__ndk117__compressed_pairIPNS_6vectorIiNS_9allocatorIiEEEENS2_IS4_EEEC2IDnLb1EEEOT_, .Lfunc_end28-_ZNSt6__ndk117__compressed_pairIPNS_6vectorIiNS_9allocatorIiEEEENS2_IS4_EEEC2IDnLb1EEEOT_
	.cfi_endproc
                                        // -- End function
	.section	.text._ZNSt6__ndk17forwardIDnEEOT_RNS_16remove_referenceIS1_E4typeE,"axG",@progbits,_ZNSt6__ndk17forwardIDnEEOT_RNS_16remove_referenceIS1_E4typeE,comdat
	.hidden	_ZNSt6__ndk17forwardIDnEEOT_RNS_16remove_referenceIS1_E4typeE // -- Begin function _ZNSt6__ndk17forwardIDnEEOT_RNS_16remove_referenceIS1_E4typeE
	.weak	_ZNSt6__ndk17forwardIDnEEOT_RNS_16remove_referenceIS1_E4typeE
	.p2align	2
	.type	_ZNSt6__ndk17forwardIDnEEOT_RNS_16remove_referenceIS1_E4typeE,@function
_ZNSt6__ndk17forwardIDnEEOT_RNS_16remove_referenceIS1_E4typeE: // @_ZNSt6__ndk17forwardIDnEEOT_RNS_16remove_referenceIS1_E4typeE
// %bb.0:
	sub	sp, sp, #16             // =16
	str	x0, [sp, #8]
	ldr	x0, [sp, #8]
	add	sp, sp, #16             // =16
	ret
.Lfunc_end29:
	.size	_ZNSt6__ndk17forwardIDnEEOT_RNS_16remove_referenceIS1_E4typeE, .Lfunc_end29-_ZNSt6__ndk17forwardIDnEEOT_RNS_16remove_referenceIS1_E4typeE
                                        // -- End function
	.section	.text._ZNSt6__ndk122__compressed_pair_elemIPNS_6vectorIiNS_9allocatorIiEEEELi0ELb0EEC2IDnvEEOT_,"axG",@progbits,_ZNSt6__ndk122__compressed_pair_elemIPNS_6vectorIiNS_9allocatorIiEEEELi0ELb0EEC2IDnvEEOT_,comdat
	.weak	_ZNSt6__ndk122__compressed_pair_elemIPNS_6vectorIiNS_9allocatorIiEEEELi0ELb0EEC2IDnvEEOT_ // -- Begin function _ZNSt6__ndk122__compressed_pair_elemIPNS_6vectorIiNS_9allocatorIiEEEELi0ELb0EEC2IDnvEEOT_
	.p2align	2
	.type	_ZNSt6__ndk122__compressed_pair_elemIPNS_6vectorIiNS_9allocatorIiEEEELi0ELb0EEC2IDnvEEOT_,@function
_ZNSt6__ndk122__compressed_pair_elemIPNS_6vectorIiNS_9allocatorIiEEEELi0ELb0EEC2IDnvEEOT_: // @_ZNSt6__ndk122__compressed_pair_elemIPNS_6vectorIiNS_9allocatorIiEEEELi0ELb0EEC2IDnvEEOT_
// %bb.0:
	sub	sp, sp, #48             // =48
	stp	x29, x30, [sp, #32]     // 16-byte Folded Spill
	add	x29, sp, #32            // =32
	mov	x8, #0
	stur	x0, [x29, #-8]
	str	x1, [sp, #16]
	ldur	x0, [x29, #-8]
	ldr	x1, [sp, #16]
	str	x0, [sp, #8]            // 8-byte Folded Spill
	mov	x0, x1
	str	x8, [sp]                // 8-byte Folded Spill
	bl	_ZNSt6__ndk17forwardIDnEEOT_RNS_16remove_referenceIS1_E4typeE
	ldr	x8, [sp]                // 8-byte Folded Reload
	ldr	x1, [sp, #8]            // 8-byte Folded Reload
	str	x8, [x1]
	ldp	x29, x30, [sp, #32]     // 16-byte Folded Reload
	add	sp, sp, #48             // =48
	ret
.Lfunc_end30:
	.size	_ZNSt6__ndk122__compressed_pair_elemIPNS_6vectorIiNS_9allocatorIiEEEELi0ELb0EEC2IDnvEEOT_, .Lfunc_end30-_ZNSt6__ndk122__compressed_pair_elemIPNS_6vectorIiNS_9allocatorIiEEEELi0ELb0EEC2IDnvEEOT_
                                        // -- End function
	.section	.text._ZNSt6__ndk122__compressed_pair_elemINS_9allocatorINS_6vectorIiNS1_IiEEEEEELi1ELb1EEC2Ev,"axG",@progbits,_ZNSt6__ndk122__compressed_pair_elemINS_9allocatorINS_6vectorIiNS1_IiEEEEEELi1ELb1EEC2Ev,comdat
	.hidden	_ZNSt6__ndk122__compressed_pair_elemINS_9allocatorINS_6vectorIiNS1_IiEEEEEELi1ELb1EEC2Ev // -- Begin function _ZNSt6__ndk122__compressed_pair_elemINS_9allocatorINS_6vectorIiNS1_IiEEEEEELi1ELb1EEC2Ev
	.weak	_ZNSt6__ndk122__compressed_pair_elemINS_9allocatorINS_6vectorIiNS1_IiEEEEEELi1ELb1EEC2Ev
	.p2align	2
	.type	_ZNSt6__ndk122__compressed_pair_elemINS_9allocatorINS_6vectorIiNS1_IiEEEEEELi1ELb1EEC2Ev,@function
_ZNSt6__ndk122__compressed_pair_elemINS_9allocatorINS_6vectorIiNS1_IiEEEEEELi1ELb1EEC2Ev: // @_ZNSt6__ndk122__compressed_pair_elemINS_9allocatorINS_6vectorIiNS1_IiEEEEEELi1ELb1EEC2Ev
// %bb.0:
	sub	sp, sp, #32             // =32
	stp	x29, x30, [sp, #16]     // 16-byte Folded Spill
	add	x29, sp, #16            // =16
	str	x0, [sp, #8]
	ldr	x0, [sp, #8]
	bl	_ZNSt6__ndk19allocatorINS_6vectorIiNS0_IiEEEEEC2Ev
	ldp	x29, x30, [sp, #16]     // 16-byte Folded Reload
	add	sp, sp, #32             // =32
	ret
.Lfunc_end31:
	.size	_ZNSt6__ndk122__compressed_pair_elemINS_9allocatorINS_6vectorIiNS1_IiEEEEEELi1ELb1EEC2Ev, .Lfunc_end31-_ZNSt6__ndk122__compressed_pair_elemINS_9allocatorINS_6vectorIiNS1_IiEEEEEELi1ELb1EEC2Ev
                                        // -- End function
	.section	.text._ZNSt6__ndk19allocatorINS_6vectorIiNS0_IiEEEEEC2Ev,"axG",@progbits,_ZNSt6__ndk19allocatorINS_6vectorIiNS0_IiEEEEEC2Ev,comdat
	.hidden	_ZNSt6__ndk19allocatorINS_6vectorIiNS0_IiEEEEEC2Ev // -- Begin function _ZNSt6__ndk19allocatorINS_6vectorIiNS0_IiEEEEEC2Ev
	.weak	_ZNSt6__ndk19allocatorINS_6vectorIiNS0_IiEEEEEC2Ev
	.p2align	2
	.type	_ZNSt6__ndk19allocatorINS_6vectorIiNS0_IiEEEEEC2Ev,@function
_ZNSt6__ndk19allocatorINS_6vectorIiNS0_IiEEEEEC2Ev: // @_ZNSt6__ndk19allocatorINS_6vectorIiNS0_IiEEEEEC2Ev
// %bb.0:
	sub	sp, sp, #16             // =16
	str	x0, [sp, #8]
	add	sp, sp, #16             // =16
	ret
.Lfunc_end32:
	.size	_ZNSt6__ndk19allocatorINS_6vectorIiNS0_IiEEEEEC2Ev, .Lfunc_end32-_ZNSt6__ndk19allocatorINS_6vectorIiNS0_IiEEEEEC2Ev
                                        // -- End function
	.section	.text._ZNSt6__ndk113__vector_baseIiNS_9allocatorIiEEEC2Ev,"axG",@progbits,_ZNSt6__ndk113__vector_baseIiNS_9allocatorIiEEEC2Ev,comdat
	.hidden	_ZNSt6__ndk113__vector_baseIiNS_9allocatorIiEEEC2Ev // -- Begin function _ZNSt6__ndk113__vector_baseIiNS_9allocatorIiEEEC2Ev
	.weak	_ZNSt6__ndk113__vector_baseIiNS_9allocatorIiEEEC2Ev
	.p2align	2
	.type	_ZNSt6__ndk113__vector_baseIiNS_9allocatorIiEEEC2Ev,@function
_ZNSt6__ndk113__vector_baseIiNS_9allocatorIiEEEC2Ev: // @_ZNSt6__ndk113__vector_baseIiNS_9allocatorIiEEEC2Ev
.Lfunc_begin12:
	.cfi_startproc
	.cfi_personality 156, DW.ref.__gxx_personality_v0
	.cfi_lsda 28, .Lexception12
// %bb.0:
	sub	sp, sp, #48             // =48
	stp	x29, x30, [sp, #32]     // 16-byte Folded Spill
	add	x29, sp, #32            // =32
	.cfi_def_cfa w29, 16
	.cfi_offset w30, -8
	.cfi_offset w29, -16
	mov	x8, #0
	stur	x0, [x29, #-8]
	ldur	x0, [x29, #-8]
.Ltmp82:
	str	x0, [sp, #8]            // 8-byte Folded Spill
	str	x8, [sp]                // 8-byte Folded Spill
	bl	_ZNSt6__ndk120__vector_base_commonILb1EEC2Ev
.Ltmp83:
	b	.LBB33_1
.LBB33_1:
	add	x1, sp, #16             // =16
	orr	x8, xzr, #0x10
	ldr	x9, [sp, #8]            // 8-byte Folded Reload
	ldr	x10, [sp]               // 8-byte Folded Reload
	str	x10, [x9]
	ldr	x9, [sp, #8]            // 8-byte Folded Reload
	str	x10, [x9, #8]
	add	x0, x9, x8
	str	x10, [sp, #16]
.Ltmp84:
	bl	_ZNSt6__ndk117__compressed_pairIPiNS_9allocatorIiEEEC2IDnLb1EEEOT_
.Ltmp85:
	b	.LBB33_2
.LBB33_2:
	ldp	x29, x30, [sp, #32]     // 16-byte Folded Reload
	add	sp, sp, #48             // =48
	ret
.LBB33_3:
.Ltmp86:
	bl	__clang_call_terminate
.Lfunc_end33:
	.size	_ZNSt6__ndk113__vector_baseIiNS_9allocatorIiEEEC2Ev, .Lfunc_end33-_ZNSt6__ndk113__vector_baseIiNS_9allocatorIiEEEC2Ev
	.cfi_endproc
	.section	.gcc_except_table,"a",@progbits
	.p2align	2
GCC_except_table33:
.Lexception12:
	.byte	255                     // @LPStart Encoding = omit
	.byte	156                     // @TType Encoding = indirect pcrel sdata8
	.uleb128 .Lttbase6-.Lttbaseref6
.Lttbaseref6:
	.byte	1                       // Call site Encoding = uleb128
	.uleb128 .Lcst_end12-.Lcst_begin12
.Lcst_begin12:
	.uleb128 .Ltmp82-.Lfunc_begin12 // >> Call Site 1 <<
	.uleb128 .Ltmp85-.Ltmp82        //   Call between .Ltmp82 and .Ltmp85
	.uleb128 .Ltmp86-.Lfunc_begin12 //     jumps to .Ltmp86
	.byte	1                       //   On action: 1
.Lcst_end12:
	.byte	1                       // >> Action Record 1 <<
                                        //   Catch TypeInfo 1
	.byte	0                       //   No further actions
	.p2align	2
                                        // >> Catch TypeInfos <<
	.xword	0                       // TypeInfo 1
.Lttbase6:
	.p2align	2
                                        // -- End function
	.section	.text._ZNSt6__ndk117__compressed_pairIPiNS_9allocatorIiEEEC2IDnLb1EEEOT_,"axG",@progbits,_ZNSt6__ndk117__compressed_pairIPiNS_9allocatorIiEEEC2IDnLb1EEEOT_,comdat
	.weak	_ZNSt6__ndk117__compressed_pairIPiNS_9allocatorIiEEEC2IDnLb1EEEOT_ // -- Begin function _ZNSt6__ndk117__compressed_pairIPiNS_9allocatorIiEEEC2IDnLb1EEEOT_
	.p2align	2
	.type	_ZNSt6__ndk117__compressed_pairIPiNS_9allocatorIiEEEC2IDnLb1EEEOT_,@function
_ZNSt6__ndk117__compressed_pairIPiNS_9allocatorIiEEEC2IDnLb1EEEOT_: // @_ZNSt6__ndk117__compressed_pairIPiNS_9allocatorIiEEEC2IDnLb1EEEOT_
	.cfi_startproc
// %bb.0:
	sub	sp, sp, #48             // =48
	stp	x29, x30, [sp, #32]     // 16-byte Folded Spill
	add	x29, sp, #32            // =32
	.cfi_def_cfa w29, 16
	.cfi_offset w30, -8
	.cfi_offset w29, -16
	stur	x0, [x29, #-8]
	str	x1, [sp, #16]
	ldur	x0, [x29, #-8]
	ldr	x1, [sp, #16]
	str	x0, [sp, #8]            // 8-byte Folded Spill
	mov	x0, x1
	bl	_ZNSt6__ndk17forwardIDnEEOT_RNS_16remove_referenceIS1_E4typeE
	ldr	x1, [sp, #8]            // 8-byte Folded Reload
	str	x0, [sp]                // 8-byte Folded Spill
	mov	x0, x1
	ldr	x1, [sp]                // 8-byte Folded Reload
	bl	_ZNSt6__ndk122__compressed_pair_elemIPiLi0ELb0EEC2IDnvEEOT_
	ldr	x0, [sp, #8]            // 8-byte Folded Reload
	bl	_ZNSt6__ndk122__compressed_pair_elemINS_9allocatorIiEELi1ELb1EEC2Ev
	ldp	x29, x30, [sp, #32]     // 16-byte Folded Reload
	add	sp, sp, #48             // =48
	ret
.Lfunc_end34:
	.size	_ZNSt6__ndk117__compressed_pairIPiNS_9allocatorIiEEEC2IDnLb1EEEOT_, .Lfunc_end34-_ZNSt6__ndk117__compressed_pairIPiNS_9allocatorIiEEEC2IDnLb1EEEOT_
	.cfi_endproc
                                        // -- End function
	.section	.text._ZNSt6__ndk122__compressed_pair_elemIPiLi0ELb0EEC2IDnvEEOT_,"axG",@progbits,_ZNSt6__ndk122__compressed_pair_elemIPiLi0ELb0EEC2IDnvEEOT_,comdat
	.weak	_ZNSt6__ndk122__compressed_pair_elemIPiLi0ELb0EEC2IDnvEEOT_ // -- Begin function _ZNSt6__ndk122__compressed_pair_elemIPiLi0ELb0EEC2IDnvEEOT_
	.p2align	2
	.type	_ZNSt6__ndk122__compressed_pair_elemIPiLi0ELb0EEC2IDnvEEOT_,@function
_ZNSt6__ndk122__compressed_pair_elemIPiLi0ELb0EEC2IDnvEEOT_: // @_ZNSt6__ndk122__compressed_pair_elemIPiLi0ELb0EEC2IDnvEEOT_
// %bb.0:
	sub	sp, sp, #48             // =48
	stp	x29, x30, [sp, #32]     // 16-byte Folded Spill
	add	x29, sp, #32            // =32
	mov	x8, #0
	stur	x0, [x29, #-8]
	str	x1, [sp, #16]
	ldur	x0, [x29, #-8]
	ldr	x1, [sp, #16]
	str	x0, [sp, #8]            // 8-byte Folded Spill
	mov	x0, x1
	str	x8, [sp]                // 8-byte Folded Spill
	bl	_ZNSt6__ndk17forwardIDnEEOT_RNS_16remove_referenceIS1_E4typeE
	ldr	x8, [sp]                // 8-byte Folded Reload
	ldr	x1, [sp, #8]            // 8-byte Folded Reload
	str	x8, [x1]
	ldp	x29, x30, [sp, #32]     // 16-byte Folded Reload
	add	sp, sp, #48             // =48
	ret
.Lfunc_end35:
	.size	_ZNSt6__ndk122__compressed_pair_elemIPiLi0ELb0EEC2IDnvEEOT_, .Lfunc_end35-_ZNSt6__ndk122__compressed_pair_elemIPiLi0ELb0EEC2IDnvEEOT_
                                        // -- End function
	.section	.text._ZNSt6__ndk122__compressed_pair_elemINS_9allocatorIiEELi1ELb1EEC2Ev,"axG",@progbits,_ZNSt6__ndk122__compressed_pair_elemINS_9allocatorIiEELi1ELb1EEC2Ev,comdat
	.hidden	_ZNSt6__ndk122__compressed_pair_elemINS_9allocatorIiEELi1ELb1EEC2Ev // -- Begin function _ZNSt6__ndk122__compressed_pair_elemINS_9allocatorIiEELi1ELb1EEC2Ev
	.weak	_ZNSt6__ndk122__compressed_pair_elemINS_9allocatorIiEELi1ELb1EEC2Ev
	.p2align	2
	.type	_ZNSt6__ndk122__compressed_pair_elemINS_9allocatorIiEELi1ELb1EEC2Ev,@function
_ZNSt6__ndk122__compressed_pair_elemINS_9allocatorIiEELi1ELb1EEC2Ev: // @_ZNSt6__ndk122__compressed_pair_elemINS_9allocatorIiEELi1ELb1EEC2Ev
// %bb.0:
	sub	sp, sp, #32             // =32
	stp	x29, x30, [sp, #16]     // 16-byte Folded Spill
	add	x29, sp, #16            // =16
	str	x0, [sp, #8]
	ldr	x0, [sp, #8]
	bl	_ZNSt6__ndk19allocatorIiEC2Ev
	ldp	x29, x30, [sp, #16]     // 16-byte Folded Reload
	add	sp, sp, #32             // =32
	ret
.Lfunc_end36:
	.size	_ZNSt6__ndk122__compressed_pair_elemINS_9allocatorIiEELi1ELb1EEC2Ev, .Lfunc_end36-_ZNSt6__ndk122__compressed_pair_elemINS_9allocatorIiEELi1ELb1EEC2Ev
                                        // -- End function
	.section	.text._ZNSt6__ndk19allocatorIiEC2Ev,"axG",@progbits,_ZNSt6__ndk19allocatorIiEC2Ev,comdat
	.hidden	_ZNSt6__ndk19allocatorIiEC2Ev // -- Begin function _ZNSt6__ndk19allocatorIiEC2Ev
	.weak	_ZNSt6__ndk19allocatorIiEC2Ev
	.p2align	2
	.type	_ZNSt6__ndk19allocatorIiEC2Ev,@function
_ZNSt6__ndk19allocatorIiEC2Ev:          // @_ZNSt6__ndk19allocatorIiEC2Ev
// %bb.0:
	sub	sp, sp, #16             // =16
	str	x0, [sp, #8]
	add	sp, sp, #16             // =16
	ret
.Lfunc_end37:
	.size	_ZNSt6__ndk19allocatorIiEC2Ev, .Lfunc_end37-_ZNSt6__ndk19allocatorIiEC2Ev
                                        // -- End function
	.section	.text._ZNSt6__ndk117__compressed_pairImNS_9allocatorImEEEC2IiLb1EEEOT_,"axG",@progbits,_ZNSt6__ndk117__compressed_pairImNS_9allocatorImEEEC2IiLb1EEEOT_,comdat
	.weak	_ZNSt6__ndk117__compressed_pairImNS_9allocatorImEEEC2IiLb1EEEOT_ // -- Begin function _ZNSt6__ndk117__compressed_pairImNS_9allocatorImEEEC2IiLb1EEEOT_
	.p2align	2
	.type	_ZNSt6__ndk117__compressed_pairImNS_9allocatorImEEEC2IiLb1EEEOT_,@function
_ZNSt6__ndk117__compressed_pairImNS_9allocatorImEEEC2IiLb1EEEOT_: // @_ZNSt6__ndk117__compressed_pairImNS_9allocatorImEEEC2IiLb1EEEOT_
	.cfi_startproc
// %bb.0:
	sub	sp, sp, #48             // =48
	stp	x29, x30, [sp, #32]     // 16-byte Folded Spill
	add	x29, sp, #32            // =32
	.cfi_def_cfa w29, 16
	.cfi_offset w30, -8
	.cfi_offset w29, -16
	stur	x0, [x29, #-8]
	str	x1, [sp, #16]
	ldur	x0, [x29, #-8]
	ldr	x1, [sp, #16]
	str	x0, [sp, #8]            // 8-byte Folded Spill
	mov	x0, x1
	bl	_ZNSt6__ndk17forwardIiEEOT_RNS_16remove_referenceIS1_E4typeE
	ldr	x1, [sp, #8]            // 8-byte Folded Reload
	str	x0, [sp]                // 8-byte Folded Spill
	mov	x0, x1
	ldr	x1, [sp]                // 8-byte Folded Reload
	bl	_ZNSt6__ndk122__compressed_pair_elemImLi0ELb0EEC2IivEEOT_
	ldr	x0, [sp, #8]            // 8-byte Folded Reload
	bl	_ZNSt6__ndk122__compressed_pair_elemINS_9allocatorImEELi1ELb1EEC2Ev
	ldp	x29, x30, [sp, #32]     // 16-byte Folded Reload
	add	sp, sp, #48             // =48
	ret
.Lfunc_end38:
	.size	_ZNSt6__ndk117__compressed_pairImNS_9allocatorImEEEC2IiLb1EEEOT_, .Lfunc_end38-_ZNSt6__ndk117__compressed_pairImNS_9allocatorImEEEC2IiLb1EEEOT_
	.cfi_endproc
                                        // -- End function
	.section	.text._ZNSt6__ndk17forwardIiEEOT_RNS_16remove_referenceIS1_E4typeE,"axG",@progbits,_ZNSt6__ndk17forwardIiEEOT_RNS_16remove_referenceIS1_E4typeE,comdat
	.hidden	_ZNSt6__ndk17forwardIiEEOT_RNS_16remove_referenceIS1_E4typeE // -- Begin function _ZNSt6__ndk17forwardIiEEOT_RNS_16remove_referenceIS1_E4typeE
	.weak	_ZNSt6__ndk17forwardIiEEOT_RNS_16remove_referenceIS1_E4typeE
	.p2align	2
	.type	_ZNSt6__ndk17forwardIiEEOT_RNS_16remove_referenceIS1_E4typeE,@function
_ZNSt6__ndk17forwardIiEEOT_RNS_16remove_referenceIS1_E4typeE: // @_ZNSt6__ndk17forwardIiEEOT_RNS_16remove_referenceIS1_E4typeE
// %bb.0:
	sub	sp, sp, #16             // =16
	str	x0, [sp, #8]
	ldr	x0, [sp, #8]
	add	sp, sp, #16             // =16
	ret
.Lfunc_end39:
	.size	_ZNSt6__ndk17forwardIiEEOT_RNS_16remove_referenceIS1_E4typeE, .Lfunc_end39-_ZNSt6__ndk17forwardIiEEOT_RNS_16remove_referenceIS1_E4typeE
                                        // -- End function
	.section	.text._ZNSt6__ndk122__compressed_pair_elemImLi0ELb0EEC2IivEEOT_,"axG",@progbits,_ZNSt6__ndk122__compressed_pair_elemImLi0ELb0EEC2IivEEOT_,comdat
	.weak	_ZNSt6__ndk122__compressed_pair_elemImLi0ELb0EEC2IivEEOT_ // -- Begin function _ZNSt6__ndk122__compressed_pair_elemImLi0ELb0EEC2IivEEOT_
	.p2align	2
	.type	_ZNSt6__ndk122__compressed_pair_elemImLi0ELb0EEC2IivEEOT_,@function
_ZNSt6__ndk122__compressed_pair_elemImLi0ELb0EEC2IivEEOT_: // @_ZNSt6__ndk122__compressed_pair_elemImLi0ELb0EEC2IivEEOT_
// %bb.0:
	sub	sp, sp, #48             // =48
	stp	x29, x30, [sp, #32]     // 16-byte Folded Spill
	add	x29, sp, #32            // =32
	stur	x0, [x29, #-8]
	str	x1, [sp, #16]
	ldur	x0, [x29, #-8]
	ldr	x1, [sp, #16]
	str	x0, [sp, #8]            // 8-byte Folded Spill
	mov	x0, x1
	bl	_ZNSt6__ndk17forwardIiEEOT_RNS_16remove_referenceIS1_E4typeE
	ldr	w8, [x0]
	mov	w0, w8
	sxtw	x0, w0
	ldr	x1, [sp, #8]            // 8-byte Folded Reload
	str	x0, [x1]
	ldp	x29, x30, [sp, #32]     // 16-byte Folded Reload
	add	sp, sp, #48             // =48
	ret
.Lfunc_end40:
	.size	_ZNSt6__ndk122__compressed_pair_elemImLi0ELb0EEC2IivEEOT_, .Lfunc_end40-_ZNSt6__ndk122__compressed_pair_elemImLi0ELb0EEC2IivEEOT_
                                        // -- End function
	.section	.text._ZNSt6__ndk122__compressed_pair_elemINS_9allocatorImEELi1ELb1EEC2Ev,"axG",@progbits,_ZNSt6__ndk122__compressed_pair_elemINS_9allocatorImEELi1ELb1EEC2Ev,comdat
	.hidden	_ZNSt6__ndk122__compressed_pair_elemINS_9allocatorImEELi1ELb1EEC2Ev // -- Begin function _ZNSt6__ndk122__compressed_pair_elemINS_9allocatorImEELi1ELb1EEC2Ev
	.weak	_ZNSt6__ndk122__compressed_pair_elemINS_9allocatorImEELi1ELb1EEC2Ev
	.p2align	2
	.type	_ZNSt6__ndk122__compressed_pair_elemINS_9allocatorImEELi1ELb1EEC2Ev,@function
_ZNSt6__ndk122__compressed_pair_elemINS_9allocatorImEELi1ELb1EEC2Ev: // @_ZNSt6__ndk122__compressed_pair_elemINS_9allocatorImEELi1ELb1EEC2Ev
// %bb.0:
	sub	sp, sp, #32             // =32
	stp	x29, x30, [sp, #16]     // 16-byte Folded Spill
	add	x29, sp, #16            // =16
	str	x0, [sp, #8]
	ldr	x0, [sp, #8]
	bl	_ZNSt6__ndk19allocatorImEC2Ev
	ldp	x29, x30, [sp, #16]     // 16-byte Folded Reload
	add	sp, sp, #32             // =32
	ret
.Lfunc_end41:
	.size	_ZNSt6__ndk122__compressed_pair_elemINS_9allocatorImEELi1ELb1EEC2Ev, .Lfunc_end41-_ZNSt6__ndk122__compressed_pair_elemINS_9allocatorImEELi1ELb1EEC2Ev
                                        // -- End function
	.section	.text._ZNSt6__ndk19allocatorImEC2Ev,"axG",@progbits,_ZNSt6__ndk19allocatorImEC2Ev,comdat
	.hidden	_ZNSt6__ndk19allocatorImEC2Ev // -- Begin function _ZNSt6__ndk19allocatorImEC2Ev
	.weak	_ZNSt6__ndk19allocatorImEC2Ev
	.p2align	2
	.type	_ZNSt6__ndk19allocatorImEC2Ev,@function
_ZNSt6__ndk19allocatorImEC2Ev:          // @_ZNSt6__ndk19allocatorImEC2Ev
// %bb.0:
	sub	sp, sp, #16             // =16
	str	x0, [sp, #8]
	add	sp, sp, #16             // =16
	ret
.Lfunc_end42:
	.size	_ZNSt6__ndk19allocatorImEC2Ev, .Lfunc_end42-_ZNSt6__ndk19allocatorImEC2Ev
                                        // -- End function
	.section	.text._ZNKSt6__ndk16vectorINS0_IiNS_9allocatorIiEEEENS1_IS3_EEE17__annotate_deleteEv,"axG",@progbits,_ZNKSt6__ndk16vectorINS0_IiNS_9allocatorIiEEEENS1_IS3_EEE17__annotate_deleteEv,comdat
	.hidden	_ZNKSt6__ndk16vectorINS0_IiNS_9allocatorIiEEEENS1_IS3_EEE17__annotate_deleteEv // -- Begin function _ZNKSt6__ndk16vectorINS0_IiNS_9allocatorIiEEEENS1_IS3_EEE17__annotate_deleteEv
	.weak	_ZNKSt6__ndk16vectorINS0_IiNS_9allocatorIiEEEENS1_IS3_EEE17__annotate_deleteEv
	.p2align	2
	.type	_ZNKSt6__ndk16vectorINS0_IiNS_9allocatorIiEEEENS1_IS3_EEE17__annotate_deleteEv,@function
_ZNKSt6__ndk16vectorINS0_IiNS_9allocatorIiEEEENS1_IS3_EEE17__annotate_deleteEv: // @_ZNKSt6__ndk16vectorINS0_IiNS_9allocatorIiEEEENS1_IS3_EEE17__annotate_deleteEv
	.cfi_startproc
// %bb.0:
	sub	sp, sp, #96             // =96
	stp	x29, x30, [sp, #80]     // 16-byte Folded Spill
	add	x29, sp, #80            // =80
	.cfi_def_cfa w29, 16
	.cfi_offset w30, -8
	.cfi_offset w29, -16
	orr	x8, xzr, #0x18
	stur	x0, [x29, #-8]
	ldur	x0, [x29, #-8]
	stur	x0, [x29, #-16]         // 8-byte Folded Spill
	stur	x8, [x29, #-24]         // 8-byte Folded Spill
	bl	_ZNKSt6__ndk16vectorINS0_IiNS_9allocatorIiEEEENS1_IS3_EEE4dataEv
	ldur	x8, [x29, #-16]         // 8-byte Folded Reload
	stur	x0, [x29, #-32]         // 8-byte Folded Spill
	mov	x0, x8
	bl	_ZNKSt6__ndk16vectorINS0_IiNS_9allocatorIiEEEENS1_IS3_EEE4dataEv
	ldur	x8, [x29, #-16]         // 8-byte Folded Reload
	str	x0, [sp, #40]           // 8-byte Folded Spill
	mov	x0, x8
	bl	_ZNKSt6__ndk16vectorINS0_IiNS_9allocatorIiEEEENS1_IS3_EEE8capacityEv
	ldur	x8, [x29, #-24]         // 8-byte Folded Reload
	mul	x0, x8, x0
	ldr	x9, [sp, #40]           // 8-byte Folded Reload
	add	x0, x9, x0
	ldur	x10, [x29, #-16]        // 8-byte Folded Reload
	str	x0, [sp, #32]           // 8-byte Folded Spill
	mov	x0, x10
	bl	_ZNKSt6__ndk16vectorINS0_IiNS_9allocatorIiEEEENS1_IS3_EEE4dataEv
	ldur	x8, [x29, #-16]         // 8-byte Folded Reload
	str	x0, [sp, #24]           // 8-byte Folded Spill
	mov	x0, x8
	bl	_ZNKSt6__ndk16vectorINS0_IiNS_9allocatorIiEEEENS1_IS3_EEE4sizeEv
	ldur	x8, [x29, #-24]         // 8-byte Folded Reload
	mul	x9, x8, x0
	ldr	x10, [sp, #24]          // 8-byte Folded Reload
	add	x9, x10, x9
	ldur	x0, [x29, #-16]         // 8-byte Folded Reload
	str	x9, [sp, #16]           // 8-byte Folded Spill
	bl	_ZNKSt6__ndk16vectorINS0_IiNS_9allocatorIiEEEENS1_IS3_EEE4dataEv
	ldur	x8, [x29, #-16]         // 8-byte Folded Reload
	str	x0, [sp, #8]            // 8-byte Folded Spill
	mov	x0, x8
	bl	_ZNKSt6__ndk16vectorINS0_IiNS_9allocatorIiEEEENS1_IS3_EEE8capacityEv
	ldur	x8, [x29, #-24]         // 8-byte Folded Reload
	mul	x9, x8, x0
	ldr	x10, [sp, #8]           // 8-byte Folded Reload
	add	x9, x10, x9
	ldur	x0, [x29, #-16]         // 8-byte Folded Reload
	ldur	x1, [x29, #-32]         // 8-byte Folded Reload
	ldr	x2, [sp, #32]           // 8-byte Folded Reload
	ldr	x3, [sp, #16]           // 8-byte Folded Reload
	mov	x4, x9
	bl	_ZNKSt6__ndk16vectorINS0_IiNS_9allocatorIiEEEENS1_IS3_EEE31__annotate_contiguous_containerEPKvS7_S7_S7_
	ldp	x29, x30, [sp, #80]     // 16-byte Folded Reload
	add	sp, sp, #96             // =96
	ret
.Lfunc_end43:
	.size	_ZNKSt6__ndk16vectorINS0_IiNS_9allocatorIiEEEENS1_IS3_EEE17__annotate_deleteEv, .Lfunc_end43-_ZNKSt6__ndk16vectorINS0_IiNS_9allocatorIiEEEENS1_IS3_EEE17__annotate_deleteEv
	.cfi_endproc
                                        // -- End function
	.section	.text._ZNSt6__ndk113__vector_baseINS_6vectorIiNS_9allocatorIiEEEENS2_IS4_EEED2Ev,"axG",@progbits,_ZNSt6__ndk113__vector_baseINS_6vectorIiNS_9allocatorIiEEEENS2_IS4_EEED2Ev,comdat
	.weak	_ZNSt6__ndk113__vector_baseINS_6vectorIiNS_9allocatorIiEEEENS2_IS4_EEED2Ev // -- Begin function _ZNSt6__ndk113__vector_baseINS_6vectorIiNS_9allocatorIiEEEENS2_IS4_EEED2Ev
	.p2align	2
	.type	_ZNSt6__ndk113__vector_baseINS_6vectorIiNS_9allocatorIiEEEENS2_IS4_EEED2Ev,@function
_ZNSt6__ndk113__vector_baseINS_6vectorIiNS_9allocatorIiEEEENS2_IS4_EEED2Ev: // @_ZNSt6__ndk113__vector_baseINS_6vectorIiNS_9allocatorIiEEEENS2_IS4_EEED2Ev
// %bb.0:
	sub	sp, sp, #64             // =64
	stp	x29, x30, [sp, #48]     // 16-byte Folded Spill
	add	x29, sp, #48            // =48
	mov	x8, #0
	stur	x0, [x29, #-8]
	ldur	x0, [x29, #-8]
	mov	x9, x0
	ldr	x9, [x9]
	cmp	x9, x8
	cset	w10, ne
	stur	x0, [x29, #-16]         // 8-byte Folded Spill
	tbnz	w10, #0, .LBB44_1
	b	.LBB44_2
.LBB44_1:
	ldur	x0, [x29, #-16]         // 8-byte Folded Reload
	bl	_ZNSt6__ndk113__vector_baseINS_6vectorIiNS_9allocatorIiEEEENS2_IS4_EEE5clearEv
	ldur	x0, [x29, #-16]         // 8-byte Folded Reload
	bl	_ZNSt6__ndk113__vector_baseINS_6vectorIiNS_9allocatorIiEEEENS2_IS4_EEE7__allocEv
	ldur	x8, [x29, #-16]         // 8-byte Folded Reload
	ldr	x1, [x8]
	ldur	x8, [x29, #-16]         // 8-byte Folded Reload
	str	x0, [sp, #24]           // 8-byte Folded Spill
	mov	x0, x8
	str	x1, [sp, #16]           // 8-byte Folded Spill
	bl	_ZNKSt6__ndk113__vector_baseINS_6vectorIiNS_9allocatorIiEEEENS2_IS4_EEE8capacityEv
	ldr	x1, [sp, #24]           // 8-byte Folded Reload
	str	x0, [sp, #8]            // 8-byte Folded Spill
	mov	x0, x1
	ldr	x1, [sp, #16]           // 8-byte Folded Reload
	ldr	x2, [sp, #8]            // 8-byte Folded Reload
	bl	_ZNSt6__ndk116allocator_traitsINS_9allocatorINS_6vectorIiNS1_IiEEEEEEE10deallocateERS5_PS4_m
.LBB44_2:
	ldp	x29, x30, [sp, #48]     // 16-byte Folded Reload
	add	sp, sp, #64             // =64
	ret
.Lfunc_end44:
	.size	_ZNSt6__ndk113__vector_baseINS_6vectorIiNS_9allocatorIiEEEENS2_IS4_EEED2Ev, .Lfunc_end44-_ZNSt6__ndk113__vector_baseINS_6vectorIiNS_9allocatorIiEEEENS2_IS4_EEED2Ev
                                        // -- End function
	.section	.text._ZNKSt6__ndk16vectorINS0_IiNS_9allocatorIiEEEENS1_IS3_EEE31__annotate_contiguous_containerEPKvS7_S7_S7_,"axG",@progbits,_ZNKSt6__ndk16vectorINS0_IiNS_9allocatorIiEEEENS1_IS3_EEE31__annotate_contiguous_containerEPKvS7_S7_S7_,comdat
	.hidden	_ZNKSt6__ndk16vectorINS0_IiNS_9allocatorIiEEEENS1_IS3_EEE31__annotate_contiguous_containerEPKvS7_S7_S7_ // -- Begin function _ZNKSt6__ndk16vectorINS0_IiNS_9allocatorIiEEEENS1_IS3_EEE31__annotate_contiguous_containerEPKvS7_S7_S7_
	.weak	_ZNKSt6__ndk16vectorINS0_IiNS_9allocatorIiEEEENS1_IS3_EEE31__annotate_contiguous_containerEPKvS7_S7_S7_
	.p2align	2
	.type	_ZNKSt6__ndk16vectorINS0_IiNS_9allocatorIiEEEENS1_IS3_EEE31__annotate_contiguous_containerEPKvS7_S7_S7_,@function
_ZNKSt6__ndk16vectorINS0_IiNS_9allocatorIiEEEENS1_IS3_EEE31__annotate_contiguous_containerEPKvS7_S7_S7_: // @_ZNKSt6__ndk16vectorINS0_IiNS_9allocatorIiEEEENS1_IS3_EEE31__annotate_contiguous_containerEPKvS7_S7_S7_
// %bb.0:
	sub	sp, sp, #48             // =48
	str	x0, [sp, #40]
	str	x1, [sp, #32]
	str	x2, [sp, #24]
	str	x3, [sp, #16]
	str	x4, [sp, #8]
	add	sp, sp, #48             // =48
	ret
.Lfunc_end45:
	.size	_ZNKSt6__ndk16vectorINS0_IiNS_9allocatorIiEEEENS1_IS3_EEE31__annotate_contiguous_containerEPKvS7_S7_S7_, .Lfunc_end45-_ZNKSt6__ndk16vectorINS0_IiNS_9allocatorIiEEEENS1_IS3_EEE31__annotate_contiguous_containerEPKvS7_S7_S7_
                                        // -- End function
	.section	.text._ZNKSt6__ndk16vectorINS0_IiNS_9allocatorIiEEEENS1_IS3_EEE4dataEv,"axG",@progbits,_ZNKSt6__ndk16vectorINS0_IiNS_9allocatorIiEEEENS1_IS3_EEE4dataEv,comdat
	.hidden	_ZNKSt6__ndk16vectorINS0_IiNS_9allocatorIiEEEENS1_IS3_EEE4dataEv // -- Begin function _ZNKSt6__ndk16vectorINS0_IiNS_9allocatorIiEEEENS1_IS3_EEE4dataEv
	.weak	_ZNKSt6__ndk16vectorINS0_IiNS_9allocatorIiEEEENS1_IS3_EEE4dataEv
	.p2align	2
	.type	_ZNKSt6__ndk16vectorINS0_IiNS_9allocatorIiEEEENS1_IS3_EEE4dataEv,@function
_ZNKSt6__ndk16vectorINS0_IiNS_9allocatorIiEEEENS1_IS3_EEE4dataEv: // @_ZNKSt6__ndk16vectorINS0_IiNS_9allocatorIiEEEENS1_IS3_EEE4dataEv
// %bb.0:
	sub	sp, sp, #32             // =32
	stp	x29, x30, [sp, #16]     // 16-byte Folded Spill
	add	x29, sp, #16            // =16
	str	x0, [sp, #8]
	ldr	x0, [sp, #8]
	ldr	x0, [x0]
	bl	_ZNSt6__ndk116__to_raw_pointerINS_6vectorIiNS_9allocatorIiEEEEEEPT_S6_
	ldp	x29, x30, [sp, #16]     // 16-byte Folded Reload
	add	sp, sp, #32             // =32
	ret
.Lfunc_end46:
	.size	_ZNKSt6__ndk16vectorINS0_IiNS_9allocatorIiEEEENS1_IS3_EEE4dataEv, .Lfunc_end46-_ZNKSt6__ndk16vectorINS0_IiNS_9allocatorIiEEEENS1_IS3_EEE4dataEv
                                        // -- End function
	.section	.text._ZNKSt6__ndk16vectorINS0_IiNS_9allocatorIiEEEENS1_IS3_EEE8capacityEv,"axG",@progbits,_ZNKSt6__ndk16vectorINS0_IiNS_9allocatorIiEEEENS1_IS3_EEE8capacityEv,comdat
	.hidden	_ZNKSt6__ndk16vectorINS0_IiNS_9allocatorIiEEEENS1_IS3_EEE8capacityEv // -- Begin function _ZNKSt6__ndk16vectorINS0_IiNS_9allocatorIiEEEENS1_IS3_EEE8capacityEv
	.weak	_ZNKSt6__ndk16vectorINS0_IiNS_9allocatorIiEEEENS1_IS3_EEE8capacityEv
	.p2align	2
	.type	_ZNKSt6__ndk16vectorINS0_IiNS_9allocatorIiEEEENS1_IS3_EEE8capacityEv,@function
_ZNKSt6__ndk16vectorINS0_IiNS_9allocatorIiEEEENS1_IS3_EEE8capacityEv: // @_ZNKSt6__ndk16vectorINS0_IiNS_9allocatorIiEEEENS1_IS3_EEE8capacityEv
// %bb.0:
	sub	sp, sp, #32             // =32
	stp	x29, x30, [sp, #16]     // 16-byte Folded Spill
	add	x29, sp, #16            // =16
	str	x0, [sp, #8]
	ldr	x0, [sp, #8]
	bl	_ZNKSt6__ndk113__vector_baseINS_6vectorIiNS_9allocatorIiEEEENS2_IS4_EEE8capacityEv
	ldp	x29, x30, [sp, #16]     // 16-byte Folded Reload
	add	sp, sp, #32             // =32
	ret
.Lfunc_end47:
	.size	_ZNKSt6__ndk16vectorINS0_IiNS_9allocatorIiEEEENS1_IS3_EEE8capacityEv, .Lfunc_end47-_ZNKSt6__ndk16vectorINS0_IiNS_9allocatorIiEEEENS1_IS3_EEE8capacityEv
                                        // -- End function
	.section	.text._ZNKSt6__ndk16vectorINS0_IiNS_9allocatorIiEEEENS1_IS3_EEE4sizeEv,"axG",@progbits,_ZNKSt6__ndk16vectorINS0_IiNS_9allocatorIiEEEENS1_IS3_EEE4sizeEv,comdat
	.hidden	_ZNKSt6__ndk16vectorINS0_IiNS_9allocatorIiEEEENS1_IS3_EEE4sizeEv // -- Begin function _ZNKSt6__ndk16vectorINS0_IiNS_9allocatorIiEEEENS1_IS3_EEE4sizeEv
	.weak	_ZNKSt6__ndk16vectorINS0_IiNS_9allocatorIiEEEENS1_IS3_EEE4sizeEv
	.p2align	2
	.type	_ZNKSt6__ndk16vectorINS0_IiNS_9allocatorIiEEEENS1_IS3_EEE4sizeEv,@function
_ZNKSt6__ndk16vectorINS0_IiNS_9allocatorIiEEEENS1_IS3_EEE4sizeEv: // @_ZNKSt6__ndk16vectorINS0_IiNS_9allocatorIiEEEENS1_IS3_EEE4sizeEv
// %bb.0:
	sub	sp, sp, #16             // =16
	orr	x8, xzr, #0x18
	str	x0, [sp, #8]
	ldr	x0, [sp, #8]
	ldr	x9, [x0, #8]
	ldr	x0, [x0]
	subs	x9, x9, x0
	sdiv	x0, x9, x8
	add	sp, sp, #16             // =16
	ret
.Lfunc_end48:
	.size	_ZNKSt6__ndk16vectorINS0_IiNS_9allocatorIiEEEENS1_IS3_EEE4sizeEv, .Lfunc_end48-_ZNKSt6__ndk16vectorINS0_IiNS_9allocatorIiEEEENS1_IS3_EEE4sizeEv
                                        // -- End function
	.section	.text._ZNSt6__ndk116__to_raw_pointerINS_6vectorIiNS_9allocatorIiEEEEEEPT_S6_,"axG",@progbits,_ZNSt6__ndk116__to_raw_pointerINS_6vectorIiNS_9allocatorIiEEEEEEPT_S6_,comdat
	.hidden	_ZNSt6__ndk116__to_raw_pointerINS_6vectorIiNS_9allocatorIiEEEEEEPT_S6_ // -- Begin function _ZNSt6__ndk116__to_raw_pointerINS_6vectorIiNS_9allocatorIiEEEEEEPT_S6_
	.weak	_ZNSt6__ndk116__to_raw_pointerINS_6vectorIiNS_9allocatorIiEEEEEEPT_S6_
	.p2align	2
	.type	_ZNSt6__ndk116__to_raw_pointerINS_6vectorIiNS_9allocatorIiEEEEEEPT_S6_,@function
_ZNSt6__ndk116__to_raw_pointerINS_6vectorIiNS_9allocatorIiEEEEEEPT_S6_: // @_ZNSt6__ndk116__to_raw_pointerINS_6vectorIiNS_9allocatorIiEEEEEEPT_S6_
// %bb.0:
	sub	sp, sp, #16             // =16
	str	x0, [sp, #8]
	ldr	x0, [sp, #8]
	add	sp, sp, #16             // =16
	ret
.Lfunc_end49:
	.size	_ZNSt6__ndk116__to_raw_pointerINS_6vectorIiNS_9allocatorIiEEEEEEPT_S6_, .Lfunc_end49-_ZNSt6__ndk116__to_raw_pointerINS_6vectorIiNS_9allocatorIiEEEEEEPT_S6_
                                        // -- End function
	.section	.text._ZNKSt6__ndk113__vector_baseINS_6vectorIiNS_9allocatorIiEEEENS2_IS4_EEE8capacityEv,"axG",@progbits,_ZNKSt6__ndk113__vector_baseINS_6vectorIiNS_9allocatorIiEEEENS2_IS4_EEE8capacityEv,comdat
	.hidden	_ZNKSt6__ndk113__vector_baseINS_6vectorIiNS_9allocatorIiEEEENS2_IS4_EEE8capacityEv // -- Begin function _ZNKSt6__ndk113__vector_baseINS_6vectorIiNS_9allocatorIiEEEENS2_IS4_EEE8capacityEv
	.weak	_ZNKSt6__ndk113__vector_baseINS_6vectorIiNS_9allocatorIiEEEENS2_IS4_EEE8capacityEv
	.p2align	2
	.type	_ZNKSt6__ndk113__vector_baseINS_6vectorIiNS_9allocatorIiEEEENS2_IS4_EEE8capacityEv,@function
_ZNKSt6__ndk113__vector_baseINS_6vectorIiNS_9allocatorIiEEEENS2_IS4_EEE8capacityEv: // @_ZNKSt6__ndk113__vector_baseINS_6vectorIiNS_9allocatorIiEEEENS2_IS4_EEE8capacityEv
// %bb.0:
	sub	sp, sp, #48             // =48
	stp	x29, x30, [sp, #32]     // 16-byte Folded Spill
	add	x29, sp, #32            // =32
	orr	x8, xzr, #0x18
	stur	x0, [x29, #-8]
	ldur	x0, [x29, #-8]
	str	x0, [sp, #16]           // 8-byte Folded Spill
	str	x8, [sp, #8]            // 8-byte Folded Spill
	bl	_ZNKSt6__ndk113__vector_baseINS_6vectorIiNS_9allocatorIiEEEENS2_IS4_EEE9__end_capEv
	ldr	x8, [x0]
	ldr	x0, [sp, #16]           // 8-byte Folded Reload
	ldr	x0, [x0]
	subs	x8, x8, x0
	ldr	x0, [sp, #8]            // 8-byte Folded Reload
	sdiv	x0, x8, x0
	ldp	x29, x30, [sp, #32]     // 16-byte Folded Reload
	add	sp, sp, #48             // =48
	ret
.Lfunc_end50:
	.size	_ZNKSt6__ndk113__vector_baseINS_6vectorIiNS_9allocatorIiEEEENS2_IS4_EEE8capacityEv, .Lfunc_end50-_ZNKSt6__ndk113__vector_baseINS_6vectorIiNS_9allocatorIiEEEENS2_IS4_EEE8capacityEv
                                        // -- End function
	.section	.text._ZNKSt6__ndk113__vector_baseINS_6vectorIiNS_9allocatorIiEEEENS2_IS4_EEE9__end_capEv,"axG",@progbits,_ZNKSt6__ndk113__vector_baseINS_6vectorIiNS_9allocatorIiEEEENS2_IS4_EEE9__end_capEv,comdat
	.hidden	_ZNKSt6__ndk113__vector_baseINS_6vectorIiNS_9allocatorIiEEEENS2_IS4_EEE9__end_capEv // -- Begin function _ZNKSt6__ndk113__vector_baseINS_6vectorIiNS_9allocatorIiEEEENS2_IS4_EEE9__end_capEv
	.weak	_ZNKSt6__ndk113__vector_baseINS_6vectorIiNS_9allocatorIiEEEENS2_IS4_EEE9__end_capEv
	.p2align	2
	.type	_ZNKSt6__ndk113__vector_baseINS_6vectorIiNS_9allocatorIiEEEENS2_IS4_EEE9__end_capEv,@function
_ZNKSt6__ndk113__vector_baseINS_6vectorIiNS_9allocatorIiEEEENS2_IS4_EEE9__end_capEv: // @_ZNKSt6__ndk113__vector_baseINS_6vectorIiNS_9allocatorIiEEEENS2_IS4_EEE9__end_capEv
// %bb.0:
	sub	sp, sp, #32             // =32
	stp	x29, x30, [sp, #16]     // 16-byte Folded Spill
	add	x29, sp, #16            // =16
	orr	x8, xzr, #0x10
	str	x0, [sp, #8]
	ldr	x0, [sp, #8]
	add	x0, x0, x8
	bl	_ZNKSt6__ndk117__compressed_pairIPNS_6vectorIiNS_9allocatorIiEEEENS2_IS4_EEE5firstEv
	ldp	x29, x30, [sp, #16]     // 16-byte Folded Reload
	add	sp, sp, #32             // =32
	ret
.Lfunc_end51:
	.size	_ZNKSt6__ndk113__vector_baseINS_6vectorIiNS_9allocatorIiEEEENS2_IS4_EEE9__end_capEv, .Lfunc_end51-_ZNKSt6__ndk113__vector_baseINS_6vectorIiNS_9allocatorIiEEEENS2_IS4_EEE9__end_capEv
                                        // -- End function
	.section	.text._ZNKSt6__ndk117__compressed_pairIPNS_6vectorIiNS_9allocatorIiEEEENS2_IS4_EEE5firstEv,"axG",@progbits,_ZNKSt6__ndk117__compressed_pairIPNS_6vectorIiNS_9allocatorIiEEEENS2_IS4_EEE5firstEv,comdat
	.hidden	_ZNKSt6__ndk117__compressed_pairIPNS_6vectorIiNS_9allocatorIiEEEENS2_IS4_EEE5firstEv // -- Begin function _ZNKSt6__ndk117__compressed_pairIPNS_6vectorIiNS_9allocatorIiEEEENS2_IS4_EEE5firstEv
	.weak	_ZNKSt6__ndk117__compressed_pairIPNS_6vectorIiNS_9allocatorIiEEEENS2_IS4_EEE5firstEv
	.p2align	2
	.type	_ZNKSt6__ndk117__compressed_pairIPNS_6vectorIiNS_9allocatorIiEEEENS2_IS4_EEE5firstEv,@function
_ZNKSt6__ndk117__compressed_pairIPNS_6vectorIiNS_9allocatorIiEEEENS2_IS4_EEE5firstEv: // @_ZNKSt6__ndk117__compressed_pairIPNS_6vectorIiNS_9allocatorIiEEEENS2_IS4_EEE5firstEv
// %bb.0:
	sub	sp, sp, #32             // =32
	stp	x29, x30, [sp, #16]     // 16-byte Folded Spill
	add	x29, sp, #16            // =16
	str	x0, [sp, #8]
	ldr	x0, [sp, #8]
	bl	_ZNKSt6__ndk122__compressed_pair_elemIPNS_6vectorIiNS_9allocatorIiEEEELi0ELb0EE5__getEv
	ldp	x29, x30, [sp, #16]     // 16-byte Folded Reload
	add	sp, sp, #32             // =32
	ret
.Lfunc_end52:
	.size	_ZNKSt6__ndk117__compressed_pairIPNS_6vectorIiNS_9allocatorIiEEEENS2_IS4_EEE5firstEv, .Lfunc_end52-_ZNKSt6__ndk117__compressed_pairIPNS_6vectorIiNS_9allocatorIiEEEENS2_IS4_EEE5firstEv
                                        // -- End function
	.section	.text._ZNKSt6__ndk122__compressed_pair_elemIPNS_6vectorIiNS_9allocatorIiEEEELi0ELb0EE5__getEv,"axG",@progbits,_ZNKSt6__ndk122__compressed_pair_elemIPNS_6vectorIiNS_9allocatorIiEEEELi0ELb0EE5__getEv,comdat
	.hidden	_ZNKSt6__ndk122__compressed_pair_elemIPNS_6vectorIiNS_9allocatorIiEEEELi0ELb0EE5__getEv // -- Begin function _ZNKSt6__ndk122__compressed_pair_elemIPNS_6vectorIiNS_9allocatorIiEEEELi0ELb0EE5__getEv
	.weak	_ZNKSt6__ndk122__compressed_pair_elemIPNS_6vectorIiNS_9allocatorIiEEEELi0ELb0EE5__getEv
	.p2align	2
	.type	_ZNKSt6__ndk122__compressed_pair_elemIPNS_6vectorIiNS_9allocatorIiEEEELi0ELb0EE5__getEv,@function
_ZNKSt6__ndk122__compressed_pair_elemIPNS_6vectorIiNS_9allocatorIiEEEELi0ELb0EE5__getEv: // @_ZNKSt6__ndk122__compressed_pair_elemIPNS_6vectorIiNS_9allocatorIiEEEELi0ELb0EE5__getEv
// %bb.0:
	sub	sp, sp, #16             // =16
	str	x0, [sp, #8]
	ldr	x0, [sp, #8]
	add	sp, sp, #16             // =16
	ret
.Lfunc_end53:
	.size	_ZNKSt6__ndk122__compressed_pair_elemIPNS_6vectorIiNS_9allocatorIiEEEELi0ELb0EE5__getEv, .Lfunc_end53-_ZNKSt6__ndk122__compressed_pair_elemIPNS_6vectorIiNS_9allocatorIiEEEELi0ELb0EE5__getEv
                                        // -- End function
	.section	.text._ZNSt6__ndk113__vector_baseINS_6vectorIiNS_9allocatorIiEEEENS2_IS4_EEE5clearEv,"axG",@progbits,_ZNSt6__ndk113__vector_baseINS_6vectorIiNS_9allocatorIiEEEENS2_IS4_EEE5clearEv,comdat
	.hidden	_ZNSt6__ndk113__vector_baseINS_6vectorIiNS_9allocatorIiEEEENS2_IS4_EEE5clearEv // -- Begin function _ZNSt6__ndk113__vector_baseINS_6vectorIiNS_9allocatorIiEEEENS2_IS4_EEE5clearEv
	.weak	_ZNSt6__ndk113__vector_baseINS_6vectorIiNS_9allocatorIiEEEENS2_IS4_EEE5clearEv
	.p2align	2
	.type	_ZNSt6__ndk113__vector_baseINS_6vectorIiNS_9allocatorIiEEEENS2_IS4_EEE5clearEv,@function
_ZNSt6__ndk113__vector_baseINS_6vectorIiNS_9allocatorIiEEEENS2_IS4_EEE5clearEv: // @_ZNSt6__ndk113__vector_baseINS_6vectorIiNS_9allocatorIiEEEENS2_IS4_EEE5clearEv
// %bb.0:
	sub	sp, sp, #32             // =32
	stp	x29, x30, [sp, #16]     // 16-byte Folded Spill
	add	x29, sp, #16            // =16
	str	x0, [sp, #8]
	ldr	x0, [sp, #8]
	mov	x8, x0
	ldr	x1, [x8]
	bl	_ZNSt6__ndk113__vector_baseINS_6vectorIiNS_9allocatorIiEEEENS2_IS4_EEE17__destruct_at_endEPS4_
	ldp	x29, x30, [sp, #16]     // 16-byte Folded Reload
	add	sp, sp, #32             // =32
	ret
.Lfunc_end54:
	.size	_ZNSt6__ndk113__vector_baseINS_6vectorIiNS_9allocatorIiEEEENS2_IS4_EEE5clearEv, .Lfunc_end54-_ZNSt6__ndk113__vector_baseINS_6vectorIiNS_9allocatorIiEEEENS2_IS4_EEE5clearEv
                                        // -- End function
	.section	.text._ZNSt6__ndk116allocator_traitsINS_9allocatorINS_6vectorIiNS1_IiEEEEEEE10deallocateERS5_PS4_m,"axG",@progbits,_ZNSt6__ndk116allocator_traitsINS_9allocatorINS_6vectorIiNS1_IiEEEEEEE10deallocateERS5_PS4_m,comdat
	.hidden	_ZNSt6__ndk116allocator_traitsINS_9allocatorINS_6vectorIiNS1_IiEEEEEEE10deallocateERS5_PS4_m // -- Begin function _ZNSt6__ndk116allocator_traitsINS_9allocatorINS_6vectorIiNS1_IiEEEEEEE10deallocateERS5_PS4_m
	.weak	_ZNSt6__ndk116allocator_traitsINS_9allocatorINS_6vectorIiNS1_IiEEEEEEE10deallocateERS5_PS4_m
	.p2align	2
	.type	_ZNSt6__ndk116allocator_traitsINS_9allocatorINS_6vectorIiNS1_IiEEEEEEE10deallocateERS5_PS4_m,@function
_ZNSt6__ndk116allocator_traitsINS_9allocatorINS_6vectorIiNS1_IiEEEEEEE10deallocateERS5_PS4_m: // @_ZNSt6__ndk116allocator_traitsINS_9allocatorINS_6vectorIiNS1_IiEEEEEEE10deallocateERS5_PS4_m
// %bb.0:
	sub	sp, sp, #48             // =48
	stp	x29, x30, [sp, #32]     // 16-byte Folded Spill
	add	x29, sp, #32            // =32
	stur	x0, [x29, #-8]
	str	x1, [sp, #16]
	str	x2, [sp, #8]
	ldur	x0, [x29, #-8]
	ldr	x1, [sp, #16]
	ldr	x2, [sp, #8]
	bl	_ZNSt6__ndk19allocatorINS_6vectorIiNS0_IiEEEEE10deallocateEPS3_m
	ldp	x29, x30, [sp, #32]     // 16-byte Folded Reload
	add	sp, sp, #48             // =48
	ret
.Lfunc_end55:
	.size	_ZNSt6__ndk116allocator_traitsINS_9allocatorINS_6vectorIiNS1_IiEEEEEEE10deallocateERS5_PS4_m, .Lfunc_end55-_ZNSt6__ndk116allocator_traitsINS_9allocatorINS_6vectorIiNS1_IiEEEEEEE10deallocateERS5_PS4_m
                                        // -- End function
	.section	.text._ZNSt6__ndk113__vector_baseINS_6vectorIiNS_9allocatorIiEEEENS2_IS4_EEE7__allocEv,"axG",@progbits,_ZNSt6__ndk113__vector_baseINS_6vectorIiNS_9allocatorIiEEEENS2_IS4_EEE7__allocEv,comdat
	.hidden	_ZNSt6__ndk113__vector_baseINS_6vectorIiNS_9allocatorIiEEEENS2_IS4_EEE7__allocEv // -- Begin function _ZNSt6__ndk113__vector_baseINS_6vectorIiNS_9allocatorIiEEEENS2_IS4_EEE7__allocEv
	.weak	_ZNSt6__ndk113__vector_baseINS_6vectorIiNS_9allocatorIiEEEENS2_IS4_EEE7__allocEv
	.p2align	2
	.type	_ZNSt6__ndk113__vector_baseINS_6vectorIiNS_9allocatorIiEEEENS2_IS4_EEE7__allocEv,@function
_ZNSt6__ndk113__vector_baseINS_6vectorIiNS_9allocatorIiEEEENS2_IS4_EEE7__allocEv: // @_ZNSt6__ndk113__vector_baseINS_6vectorIiNS_9allocatorIiEEEENS2_IS4_EEE7__allocEv
// %bb.0:
	sub	sp, sp, #32             // =32
	stp	x29, x30, [sp, #16]     // 16-byte Folded Spill
	add	x29, sp, #16            // =16
	orr	x8, xzr, #0x10
	str	x0, [sp, #8]
	ldr	x0, [sp, #8]
	add	x0, x0, x8
	bl	_ZNSt6__ndk117__compressed_pairIPNS_6vectorIiNS_9allocatorIiEEEENS2_IS4_EEE6secondEv
	ldp	x29, x30, [sp, #16]     // 16-byte Folded Reload
	add	sp, sp, #32             // =32
	ret
.Lfunc_end56:
	.size	_ZNSt6__ndk113__vector_baseINS_6vectorIiNS_9allocatorIiEEEENS2_IS4_EEE7__allocEv, .Lfunc_end56-_ZNSt6__ndk113__vector_baseINS_6vectorIiNS_9allocatorIiEEEENS2_IS4_EEE7__allocEv
                                        // -- End function
	.section	.text._ZNSt6__ndk113__vector_baseINS_6vectorIiNS_9allocatorIiEEEENS2_IS4_EEE17__destruct_at_endEPS4_,"axG",@progbits,_ZNSt6__ndk113__vector_baseINS_6vectorIiNS_9allocatorIiEEEENS2_IS4_EEE17__destruct_at_endEPS4_,comdat
	.hidden	_ZNSt6__ndk113__vector_baseINS_6vectorIiNS_9allocatorIiEEEENS2_IS4_EEE17__destruct_at_endEPS4_ // -- Begin function _ZNSt6__ndk113__vector_baseINS_6vectorIiNS_9allocatorIiEEEENS2_IS4_EEE17__destruct_at_endEPS4_
	.weak	_ZNSt6__ndk113__vector_baseINS_6vectorIiNS_9allocatorIiEEEENS2_IS4_EEE17__destruct_at_endEPS4_
	.p2align	2
	.type	_ZNSt6__ndk113__vector_baseINS_6vectorIiNS_9allocatorIiEEEENS2_IS4_EEE17__destruct_at_endEPS4_,@function
_ZNSt6__ndk113__vector_baseINS_6vectorIiNS_9allocatorIiEEEENS2_IS4_EEE17__destruct_at_endEPS4_: // @_ZNSt6__ndk113__vector_baseINS_6vectorIiNS_9allocatorIiEEEENS2_IS4_EEE17__destruct_at_endEPS4_
.Lfunc_begin13:
	.cfi_startproc
	.cfi_personality 156, DW.ref.__gxx_personality_v0
	.cfi_lsda 28, .Lexception13
// %bb.0:
	sub	sp, sp, #80             // =80
	stp	x29, x30, [sp, #64]     // 16-byte Folded Spill
	add	x29, sp, #64            // =64
	.cfi_def_cfa w29, 16
	.cfi_offset w30, -8
	.cfi_offset w29, -16
	stur	x0, [x29, #-8]
	stur	x1, [x29, #-16]
	ldur	x0, [x29, #-8]
	ldr	x1, [x0, #8]
	stur	x1, [x29, #-24]
	str	x0, [sp, #32]           // 8-byte Folded Spill
.LBB57_1:                               // =>This Inner Loop Header: Depth=1
	ldur	x8, [x29, #-16]
	ldur	x9, [x29, #-24]
	cmp	x8, x9
	cset	w10, ne
	tbnz	w10, #0, .LBB57_2
	b	.LBB57_4
.LBB57_2:                               //   in Loop: Header=BB57_1 Depth=1
	mov	x8, #-24
	ldr	x0, [sp, #32]           // 8-byte Folded Reload
	str	x8, [sp, #24]           // 8-byte Folded Spill
	bl	_ZNSt6__ndk113__vector_baseINS_6vectorIiNS_9allocatorIiEEEENS2_IS4_EEE7__allocEv
	ldur	x8, [x29, #-24]
	ldr	x9, [sp, #24]           // 8-byte Folded Reload
	add	x8, x8, x9
	stur	x8, [x29, #-24]
	str	x0, [sp, #16]           // 8-byte Folded Spill
	mov	x0, x8
	bl	_ZNSt6__ndk116__to_raw_pointerINS_6vectorIiNS_9allocatorIiEEEEEEPT_S6_
.Ltmp94:
	ldr	x8, [sp, #16]           // 8-byte Folded Reload
	str	x0, [sp, #8]            // 8-byte Folded Spill
	mov	x0, x8
	ldr	x1, [sp, #8]            // 8-byte Folded Reload
	bl	_ZNSt6__ndk116allocator_traitsINS_9allocatorINS_6vectorIiNS1_IiEEEEEEE7destroyIS4_EEvRS5_PT_
.Ltmp95:
	b	.LBB57_3
.LBB57_3:                               //   in Loop: Header=BB57_1 Depth=1
	b	.LBB57_1
.LBB57_4:
	ldur	x8, [x29, #-16]
	ldr	x9, [sp, #32]           // 8-byte Folded Reload
	str	x8, [x9, #8]
	ldp	x29, x30, [sp, #64]     // 16-byte Folded Reload
	add	sp, sp, #80             // =80
	ret
.LBB57_5:
.Ltmp96:
	bl	__clang_call_terminate
.Lfunc_end57:
	.size	_ZNSt6__ndk113__vector_baseINS_6vectorIiNS_9allocatorIiEEEENS2_IS4_EEE17__destruct_at_endEPS4_, .Lfunc_end57-_ZNSt6__ndk113__vector_baseINS_6vectorIiNS_9allocatorIiEEEENS2_IS4_EEE17__destruct_at_endEPS4_
	.cfi_endproc
	.section	.gcc_except_table,"a",@progbits
	.p2align	2
GCC_except_table57:
.Lexception13:
	.byte	255                     // @LPStart Encoding = omit
	.byte	156                     // @TType Encoding = indirect pcrel sdata8
	.uleb128 .Lttbase7-.Lttbaseref7
.Lttbaseref7:
	.byte	1                       // Call site Encoding = uleb128
	.uleb128 .Lcst_end13-.Lcst_begin13
.Lcst_begin13:
	.uleb128 .Ltmp94-.Lfunc_begin13 // >> Call Site 1 <<
	.uleb128 .Ltmp95-.Ltmp94        //   Call between .Ltmp94 and .Ltmp95
	.uleb128 .Ltmp96-.Lfunc_begin13 //     jumps to .Ltmp96
	.byte	1                       //   On action: 1
.Lcst_end13:
	.byte	1                       // >> Action Record 1 <<
                                        //   Catch TypeInfo 1
	.byte	0                       //   No further actions
	.p2align	2
                                        // >> Catch TypeInfos <<
	.xword	0                       // TypeInfo 1
.Lttbase7:
	.p2align	2
                                        // -- End function
	.section	.text._ZNSt6__ndk116allocator_traitsINS_9allocatorINS_6vectorIiNS1_IiEEEEEEE7destroyIS4_EEvRS5_PT_,"axG",@progbits,_ZNSt6__ndk116allocator_traitsINS_9allocatorINS_6vectorIiNS1_IiEEEEEEE7destroyIS4_EEvRS5_PT_,comdat
	.weak	_ZNSt6__ndk116allocator_traitsINS_9allocatorINS_6vectorIiNS1_IiEEEEEEE7destroyIS4_EEvRS5_PT_ // -- Begin function _ZNSt6__ndk116allocator_traitsINS_9allocatorINS_6vectorIiNS1_IiEEEEEEE7destroyIS4_EEvRS5_PT_
	.p2align	2
	.type	_ZNSt6__ndk116allocator_traitsINS_9allocatorINS_6vectorIiNS1_IiEEEEEEE7destroyIS4_EEvRS5_PT_,@function
_ZNSt6__ndk116allocator_traitsINS_9allocatorINS_6vectorIiNS1_IiEEEEEEE7destroyIS4_EEvRS5_PT_: // @_ZNSt6__ndk116allocator_traitsINS_9allocatorINS_6vectorIiNS1_IiEEEEEEE7destroyIS4_EEvRS5_PT_
	.cfi_startproc
// %bb.0:
	sub	sp, sp, #48             // =48
	stp	x29, x30, [sp, #32]     // 16-byte Folded Spill
	add	x29, sp, #32            // =32
	.cfi_def_cfa w29, 16
	.cfi_offset w30, -8
	.cfi_offset w29, -16
	add	x8, sp, #15             // =15
	stur	x0, [x29, #-8]
	str	x1, [sp, #16]
	ldur	x1, [x29, #-8]
	ldr	x2, [sp, #16]
	ldrb	w0, [x8]
	bl	_ZNSt6__ndk116allocator_traitsINS_9allocatorINS_6vectorIiNS1_IiEEEEEEE9__destroyIS4_EEvNS_17integral_constantIbLb1EEERS5_PT_
	ldp	x29, x30, [sp, #32]     // 16-byte Folded Reload
	add	sp, sp, #48             // =48
	ret
.Lfunc_end58:
	.size	_ZNSt6__ndk116allocator_traitsINS_9allocatorINS_6vectorIiNS1_IiEEEEEEE7destroyIS4_EEvRS5_PT_, .Lfunc_end58-_ZNSt6__ndk116allocator_traitsINS_9allocatorINS_6vectorIiNS1_IiEEEEEEE7destroyIS4_EEvRS5_PT_
	.cfi_endproc
                                        // -- End function
	.section	.text._ZNSt6__ndk116allocator_traitsINS_9allocatorINS_6vectorIiNS1_IiEEEEEEE9__destroyIS4_EEvNS_17integral_constantIbLb1EEERS5_PT_,"axG",@progbits,_ZNSt6__ndk116allocator_traitsINS_9allocatorINS_6vectorIiNS1_IiEEEEEEE9__destroyIS4_EEvNS_17integral_constantIbLb1EEERS5_PT_,comdat
	.weak	_ZNSt6__ndk116allocator_traitsINS_9allocatorINS_6vectorIiNS1_IiEEEEEEE9__destroyIS4_EEvNS_17integral_constantIbLb1EEERS5_PT_ // -- Begin function _ZNSt6__ndk116allocator_traitsINS_9allocatorINS_6vectorIiNS1_IiEEEEEEE9__destroyIS4_EEvNS_17integral_constantIbLb1EEERS5_PT_
	.p2align	2
	.type	_ZNSt6__ndk116allocator_traitsINS_9allocatorINS_6vectorIiNS1_IiEEEEEEE9__destroyIS4_EEvNS_17integral_constantIbLb1EEERS5_PT_,@function
_ZNSt6__ndk116allocator_traitsINS_9allocatorINS_6vectorIiNS1_IiEEEEEEE9__destroyIS4_EEvNS_17integral_constantIbLb1EEERS5_PT_: // @_ZNSt6__ndk116allocator_traitsINS_9allocatorINS_6vectorIiNS1_IiEEEEEEE9__destroyIS4_EEvNS_17integral_constantIbLb1EEERS5_PT_
	.cfi_startproc
// %bb.0:
	sub	sp, sp, #48             // =48
	stp	x29, x30, [sp, #32]     // 16-byte Folded Spill
	add	x29, sp, #32            // =32
	.cfi_def_cfa w29, 16
	.cfi_offset w30, -8
	.cfi_offset w29, -16
	sub	x8, x29, #1             // =1
	strb	w0, [x8]
	str	x1, [sp, #16]
	str	x2, [sp, #8]
	ldr	x0, [sp, #16]
	ldr	x1, [sp, #8]
	bl	_ZNSt6__ndk19allocatorINS_6vectorIiNS0_IiEEEEE7destroyEPS3_
	ldp	x29, x30, [sp, #32]     // 16-byte Folded Reload
	add	sp, sp, #48             // =48
	ret
.Lfunc_end59:
	.size	_ZNSt6__ndk116allocator_traitsINS_9allocatorINS_6vectorIiNS1_IiEEEEEEE9__destroyIS4_EEvNS_17integral_constantIbLb1EEERS5_PT_, .Lfunc_end59-_ZNSt6__ndk116allocator_traitsINS_9allocatorINS_6vectorIiNS1_IiEEEEEEE9__destroyIS4_EEvNS_17integral_constantIbLb1EEERS5_PT_
	.cfi_endproc
                                        // -- End function
	.section	.text._ZNSt6__ndk19allocatorINS_6vectorIiNS0_IiEEEEE7destroyEPS3_,"axG",@progbits,_ZNSt6__ndk19allocatorINS_6vectorIiNS0_IiEEEEE7destroyEPS3_,comdat
	.hidden	_ZNSt6__ndk19allocatorINS_6vectorIiNS0_IiEEEEE7destroyEPS3_ // -- Begin function _ZNSt6__ndk19allocatorINS_6vectorIiNS0_IiEEEEE7destroyEPS3_
	.weak	_ZNSt6__ndk19allocatorINS_6vectorIiNS0_IiEEEEE7destroyEPS3_
	.p2align	2
	.type	_ZNSt6__ndk19allocatorINS_6vectorIiNS0_IiEEEEE7destroyEPS3_,@function
_ZNSt6__ndk19allocatorINS_6vectorIiNS0_IiEEEEE7destroyEPS3_: // @_ZNSt6__ndk19allocatorINS_6vectorIiNS0_IiEEEEE7destroyEPS3_
// %bb.0:
	sub	sp, sp, #32             // =32
	stp	x29, x30, [sp, #16]     // 16-byte Folded Spill
	add	x29, sp, #16            // =16
	str	x0, [sp, #8]
	str	x1, [sp]
	ldr	x0, [sp]
	bl	_ZNSt6__ndk16vectorIiNS_9allocatorIiEEED2Ev
	ldp	x29, x30, [sp, #16]     // 16-byte Folded Reload
	add	sp, sp, #32             // =32
	ret
.Lfunc_end60:
	.size	_ZNSt6__ndk19allocatorINS_6vectorIiNS0_IiEEEEE7destroyEPS3_, .Lfunc_end60-_ZNSt6__ndk19allocatorINS_6vectorIiNS0_IiEEEEE7destroyEPS3_
                                        // -- End function
	.section	.text._ZNSt6__ndk19allocatorINS_6vectorIiNS0_IiEEEEE10deallocateEPS3_m,"axG",@progbits,_ZNSt6__ndk19allocatorINS_6vectorIiNS0_IiEEEEE10deallocateEPS3_m,comdat
	.hidden	_ZNSt6__ndk19allocatorINS_6vectorIiNS0_IiEEEEE10deallocateEPS3_m // -- Begin function _ZNSt6__ndk19allocatorINS_6vectorIiNS0_IiEEEEE10deallocateEPS3_m
	.weak	_ZNSt6__ndk19allocatorINS_6vectorIiNS0_IiEEEEE10deallocateEPS3_m
	.p2align	2
	.type	_ZNSt6__ndk19allocatorINS_6vectorIiNS0_IiEEEEE10deallocateEPS3_m,@function
_ZNSt6__ndk19allocatorINS_6vectorIiNS0_IiEEEEE10deallocateEPS3_m: // @_ZNSt6__ndk19allocatorINS_6vectorIiNS0_IiEEEEE10deallocateEPS3_m
.Lfunc_begin14:
	.cfi_startproc
	.cfi_personality 156, DW.ref.__gxx_personality_v0
	.cfi_lsda 28, .Lexception14
// %bb.0:
	sub	sp, sp, #48             // =48
	stp	x29, x30, [sp, #32]     // 16-byte Folded Spill
	add	x29, sp, #32            // =32
	.cfi_def_cfa w29, 16
	.cfi_offset w30, -8
	.cfi_offset w29, -16
	orr	x8, xzr, #0x18
	orr	x9, xzr, #0x8
	stur	x0, [x29, #-8]
	str	x1, [sp, #16]
	str	x2, [sp, #8]
	ldr	x0, [sp, #16]
	ldr	x1, [sp, #8]
	mul	x1, x1, x8
.Ltmp97:
	mov	x2, x9
	bl	_ZNSt6__ndk119__libcpp_deallocateEPvmm
.Ltmp98:
	b	.LBB61_1
.LBB61_1:
	ldp	x29, x30, [sp, #32]     // 16-byte Folded Reload
	add	sp, sp, #48             // =48
	ret
.LBB61_2:
.Ltmp99:
	bl	__clang_call_terminate
.Lfunc_end61:
	.size	_ZNSt6__ndk19allocatorINS_6vectorIiNS0_IiEEEEE10deallocateEPS3_m, .Lfunc_end61-_ZNSt6__ndk19allocatorINS_6vectorIiNS0_IiEEEEE10deallocateEPS3_m
	.cfi_endproc
	.section	.gcc_except_table,"a",@progbits
	.p2align	2
GCC_except_table61:
.Lexception14:
	.byte	255                     // @LPStart Encoding = omit
	.byte	156                     // @TType Encoding = indirect pcrel sdata8
	.uleb128 .Lttbase8-.Lttbaseref8
.Lttbaseref8:
	.byte	1                       // Call site Encoding = uleb128
	.uleb128 .Lcst_end14-.Lcst_begin14
.Lcst_begin14:
	.uleb128 .Ltmp97-.Lfunc_begin14 // >> Call Site 1 <<
	.uleb128 .Ltmp98-.Ltmp97        //   Call between .Ltmp97 and .Ltmp98
	.uleb128 .Ltmp99-.Lfunc_begin14 //     jumps to .Ltmp99
	.byte	1                       //   On action: 1
.Lcst_end14:
	.byte	1                       // >> Action Record 1 <<
                                        //   Catch TypeInfo 1
	.byte	0                       //   No further actions
	.p2align	2
                                        // >> Catch TypeInfos <<
	.xword	0                       // TypeInfo 1
.Lttbase8:
	.p2align	2
                                        // -- End function
	.section	.text._ZNSt6__ndk119__libcpp_deallocateEPvmm,"axG",@progbits,_ZNSt6__ndk119__libcpp_deallocateEPvmm,comdat
	.hidden	_ZNSt6__ndk119__libcpp_deallocateEPvmm // -- Begin function _ZNSt6__ndk119__libcpp_deallocateEPvmm
	.weak	_ZNSt6__ndk119__libcpp_deallocateEPvmm
	.p2align	2
	.type	_ZNSt6__ndk119__libcpp_deallocateEPvmm,@function
_ZNSt6__ndk119__libcpp_deallocateEPvmm: // @_ZNSt6__ndk119__libcpp_deallocateEPvmm
	.cfi_startproc
// %bb.0:
	sub	sp, sp, #48             // =48
	stp	x29, x30, [sp, #32]     // 16-byte Folded Spill
	add	x29, sp, #32            // =32
	.cfi_def_cfa w29, 16
	.cfi_offset w30, -8
	.cfi_offset w29, -16
	stur	x0, [x29, #-8]
	str	x1, [sp, #16]
	str	x2, [sp, #8]
	ldur	x0, [x29, #-8]
	ldr	x1, [sp, #16]
	ldr	x2, [sp, #8]
	bl	_ZNSt6__ndk117_DeallocateCaller33__do_deallocate_handle_size_alignEPvmm
	ldp	x29, x30, [sp, #32]     // 16-byte Folded Reload
	add	sp, sp, #48             // =48
	ret
.Lfunc_end62:
	.size	_ZNSt6__ndk119__libcpp_deallocateEPvmm, .Lfunc_end62-_ZNSt6__ndk119__libcpp_deallocateEPvmm
	.cfi_endproc
                                        // -- End function
	.section	.text._ZNSt6__ndk117_DeallocateCaller33__do_deallocate_handle_size_alignEPvmm,"axG",@progbits,_ZNSt6__ndk117_DeallocateCaller33__do_deallocate_handle_size_alignEPvmm,comdat
	.hidden	_ZNSt6__ndk117_DeallocateCaller33__do_deallocate_handle_size_alignEPvmm // -- Begin function _ZNSt6__ndk117_DeallocateCaller33__do_deallocate_handle_size_alignEPvmm
	.weak	_ZNSt6__ndk117_DeallocateCaller33__do_deallocate_handle_size_alignEPvmm
	.p2align	2
	.type	_ZNSt6__ndk117_DeallocateCaller33__do_deallocate_handle_size_alignEPvmm,@function
_ZNSt6__ndk117_DeallocateCaller33__do_deallocate_handle_size_alignEPvmm: // @_ZNSt6__ndk117_DeallocateCaller33__do_deallocate_handle_size_alignEPvmm
	.cfi_startproc
// %bb.0:
	sub	sp, sp, #48             // =48
	stp	x29, x30, [sp, #32]     // 16-byte Folded Spill
	add	x29, sp, #32            // =32
	.cfi_def_cfa w29, 16
	.cfi_offset w30, -8
	.cfi_offset w29, -16
	stur	x0, [x29, #-8]
	str	x1, [sp, #16]
	str	x2, [sp, #8]
	ldur	x0, [x29, #-8]
	ldr	x1, [sp, #16]
	bl	_ZNSt6__ndk117_DeallocateCaller27__do_deallocate_handle_sizeEPvm
	ldp	x29, x30, [sp, #32]     // 16-byte Folded Reload
	add	sp, sp, #48             // =48
	ret
.Lfunc_end63:
	.size	_ZNSt6__ndk117_DeallocateCaller33__do_deallocate_handle_size_alignEPvmm, .Lfunc_end63-_ZNSt6__ndk117_DeallocateCaller33__do_deallocate_handle_size_alignEPvmm
	.cfi_endproc
                                        // -- End function
	.section	.text._ZNSt6__ndk117_DeallocateCaller27__do_deallocate_handle_sizeEPvm,"axG",@progbits,_ZNSt6__ndk117_DeallocateCaller27__do_deallocate_handle_sizeEPvm,comdat
	.weak	_ZNSt6__ndk117_DeallocateCaller27__do_deallocate_handle_sizeEPvm // -- Begin function _ZNSt6__ndk117_DeallocateCaller27__do_deallocate_handle_sizeEPvm
	.p2align	2
	.type	_ZNSt6__ndk117_DeallocateCaller27__do_deallocate_handle_sizeEPvm,@function
_ZNSt6__ndk117_DeallocateCaller27__do_deallocate_handle_sizeEPvm: // @_ZNSt6__ndk117_DeallocateCaller27__do_deallocate_handle_sizeEPvm
	.cfi_startproc
// %bb.0:
	sub	sp, sp, #32             // =32
	stp	x29, x30, [sp, #16]     // 16-byte Folded Spill
	add	x29, sp, #16            // =16
	.cfi_def_cfa w29, 16
	.cfi_offset w30, -8
	.cfi_offset w29, -16
	str	x0, [sp, #8]
	str	x1, [sp]
	ldr	x0, [sp, #8]
	bl	_ZNSt6__ndk117_DeallocateCaller9__do_callEPv
	ldp	x29, x30, [sp, #16]     // 16-byte Folded Reload
	add	sp, sp, #32             // =32
	ret
.Lfunc_end64:
	.size	_ZNSt6__ndk117_DeallocateCaller27__do_deallocate_handle_sizeEPvm, .Lfunc_end64-_ZNSt6__ndk117_DeallocateCaller27__do_deallocate_handle_sizeEPvm
	.cfi_endproc
                                        // -- End function
	.section	.text._ZNSt6__ndk117_DeallocateCaller9__do_callEPv,"axG",@progbits,_ZNSt6__ndk117_DeallocateCaller9__do_callEPv,comdat
	.weak	_ZNSt6__ndk117_DeallocateCaller9__do_callEPv // -- Begin function _ZNSt6__ndk117_DeallocateCaller9__do_callEPv
	.p2align	2
	.type	_ZNSt6__ndk117_DeallocateCaller9__do_callEPv,@function
_ZNSt6__ndk117_DeallocateCaller9__do_callEPv: // @_ZNSt6__ndk117_DeallocateCaller9__do_callEPv
// %bb.0:
	sub	sp, sp, #32             // =32
	stp	x29, x30, [sp, #16]     // 16-byte Folded Spill
	add	x29, sp, #16            // =16
	str	x0, [sp, #8]
	ldr	x0, [sp, #8]
	bl	_ZdlPv
	ldp	x29, x30, [sp, #16]     // 16-byte Folded Reload
	add	sp, sp, #32             // =32
	ret
.Lfunc_end65:
	.size	_ZNSt6__ndk117_DeallocateCaller9__do_callEPv, .Lfunc_end65-_ZNSt6__ndk117_DeallocateCaller9__do_callEPv
                                        // -- End function
	.section	.text._ZNSt6__ndk117__compressed_pairIPNS_6vectorIiNS_9allocatorIiEEEENS2_IS4_EEE6secondEv,"axG",@progbits,_ZNSt6__ndk117__compressed_pairIPNS_6vectorIiNS_9allocatorIiEEEENS2_IS4_EEE6secondEv,comdat
	.hidden	_ZNSt6__ndk117__compressed_pairIPNS_6vectorIiNS_9allocatorIiEEEENS2_IS4_EEE6secondEv // -- Begin function _ZNSt6__ndk117__compressed_pairIPNS_6vectorIiNS_9allocatorIiEEEENS2_IS4_EEE6secondEv
	.weak	_ZNSt6__ndk117__compressed_pairIPNS_6vectorIiNS_9allocatorIiEEEENS2_IS4_EEE6secondEv
	.p2align	2
	.type	_ZNSt6__ndk117__compressed_pairIPNS_6vectorIiNS_9allocatorIiEEEENS2_IS4_EEE6secondEv,@function
_ZNSt6__ndk117__compressed_pairIPNS_6vectorIiNS_9allocatorIiEEEENS2_IS4_EEE6secondEv: // @_ZNSt6__ndk117__compressed_pairIPNS_6vectorIiNS_9allocatorIiEEEENS2_IS4_EEE6secondEv
// %bb.0:
	sub	sp, sp, #32             // =32
	stp	x29, x30, [sp, #16]     // 16-byte Folded Spill
	add	x29, sp, #16            // =16
	str	x0, [sp, #8]
	ldr	x0, [sp, #8]
	bl	_ZNSt6__ndk122__compressed_pair_elemINS_9allocatorINS_6vectorIiNS1_IiEEEEEELi1ELb1EE5__getEv
	ldp	x29, x30, [sp, #16]     // 16-byte Folded Reload
	add	sp, sp, #32             // =32
	ret
.Lfunc_end66:
	.size	_ZNSt6__ndk117__compressed_pairIPNS_6vectorIiNS_9allocatorIiEEEENS2_IS4_EEE6secondEv, .Lfunc_end66-_ZNSt6__ndk117__compressed_pairIPNS_6vectorIiNS_9allocatorIiEEEENS2_IS4_EEE6secondEv
                                        // -- End function
	.section	.text._ZNSt6__ndk122__compressed_pair_elemINS_9allocatorINS_6vectorIiNS1_IiEEEEEELi1ELb1EE5__getEv,"axG",@progbits,_ZNSt6__ndk122__compressed_pair_elemINS_9allocatorINS_6vectorIiNS1_IiEEEEEELi1ELb1EE5__getEv,comdat
	.hidden	_ZNSt6__ndk122__compressed_pair_elemINS_9allocatorINS_6vectorIiNS1_IiEEEEEELi1ELb1EE5__getEv // -- Begin function _ZNSt6__ndk122__compressed_pair_elemINS_9allocatorINS_6vectorIiNS1_IiEEEEEELi1ELb1EE5__getEv
	.weak	_ZNSt6__ndk122__compressed_pair_elemINS_9allocatorINS_6vectorIiNS1_IiEEEEEELi1ELb1EE5__getEv
	.p2align	2
	.type	_ZNSt6__ndk122__compressed_pair_elemINS_9allocatorINS_6vectorIiNS1_IiEEEEEELi1ELb1EE5__getEv,@function
_ZNSt6__ndk122__compressed_pair_elemINS_9allocatorINS_6vectorIiNS1_IiEEEEEELi1ELb1EE5__getEv: // @_ZNSt6__ndk122__compressed_pair_elemINS_9allocatorINS_6vectorIiNS1_IiEEEEEELi1ELb1EE5__getEv
// %bb.0:
	sub	sp, sp, #16             // =16
	str	x0, [sp, #8]
	ldr	x0, [sp, #8]
	add	sp, sp, #16             // =16
	ret
.Lfunc_end67:
	.size	_ZNSt6__ndk122__compressed_pair_elemINS_9allocatorINS_6vectorIiNS1_IiEEEEEELi1ELb1EE5__getEv, .Lfunc_end67-_ZNSt6__ndk122__compressed_pair_elemINS_9allocatorINS_6vectorIiNS1_IiEEEEEELi1ELb1EE5__getEv
                                        // -- End function
	.section	.text._ZNKSt6__ndk16vectorIiNS_9allocatorIiEEE17__annotate_deleteEv,"axG",@progbits,_ZNKSt6__ndk16vectorIiNS_9allocatorIiEEE17__annotate_deleteEv,comdat
	.hidden	_ZNKSt6__ndk16vectorIiNS_9allocatorIiEEE17__annotate_deleteEv // -- Begin function _ZNKSt6__ndk16vectorIiNS_9allocatorIiEEE17__annotate_deleteEv
	.weak	_ZNKSt6__ndk16vectorIiNS_9allocatorIiEEE17__annotate_deleteEv
	.p2align	2
	.type	_ZNKSt6__ndk16vectorIiNS_9allocatorIiEEE17__annotate_deleteEv,@function
_ZNKSt6__ndk16vectorIiNS_9allocatorIiEEE17__annotate_deleteEv: // @_ZNKSt6__ndk16vectorIiNS_9allocatorIiEEE17__annotate_deleteEv
	.cfi_startproc
// %bb.0:
	sub	sp, sp, #96             // =96
	stp	x29, x30, [sp, #80]     // 16-byte Folded Spill
	add	x29, sp, #80            // =80
	.cfi_def_cfa w29, 16
	.cfi_offset w30, -8
	.cfi_offset w29, -16
	orr	x8, xzr, #0x4
	stur	x0, [x29, #-8]
	ldur	x0, [x29, #-8]
	stur	x0, [x29, #-16]         // 8-byte Folded Spill
	stur	x8, [x29, #-24]         // 8-byte Folded Spill
	bl	_ZNKSt6__ndk16vectorIiNS_9allocatorIiEEE4dataEv
	ldur	x8, [x29, #-16]         // 8-byte Folded Reload
	stur	x0, [x29, #-32]         // 8-byte Folded Spill
	mov	x0, x8
	bl	_ZNKSt6__ndk16vectorIiNS_9allocatorIiEEE4dataEv
	ldur	x8, [x29, #-16]         // 8-byte Folded Reload
	str	x0, [sp, #40]           // 8-byte Folded Spill
	mov	x0, x8
	bl	_ZNKSt6__ndk16vectorIiNS_9allocatorIiEEE8capacityEv
	ldur	x8, [x29, #-24]         // 8-byte Folded Reload
	mul	x0, x8, x0
	ldr	x9, [sp, #40]           // 8-byte Folded Reload
	add	x0, x9, x0
	ldur	x10, [x29, #-16]        // 8-byte Folded Reload
	str	x0, [sp, #32]           // 8-byte Folded Spill
	mov	x0, x10
	bl	_ZNKSt6__ndk16vectorIiNS_9allocatorIiEEE4dataEv
	ldur	x8, [x29, #-16]         // 8-byte Folded Reload
	str	x0, [sp, #24]           // 8-byte Folded Spill
	mov	x0, x8
	bl	_ZNKSt6__ndk16vectorIiNS_9allocatorIiEEE4sizeEv
	ldur	x8, [x29, #-24]         // 8-byte Folded Reload
	mul	x9, x8, x0
	ldr	x10, [sp, #24]          // 8-byte Folded Reload
	add	x9, x10, x9
	ldur	x0, [x29, #-16]         // 8-byte Folded Reload
	str	x9, [sp, #16]           // 8-byte Folded Spill
	bl	_ZNKSt6__ndk16vectorIiNS_9allocatorIiEEE4dataEv
	ldur	x8, [x29, #-16]         // 8-byte Folded Reload
	str	x0, [sp, #8]            // 8-byte Folded Spill
	mov	x0, x8
	bl	_ZNKSt6__ndk16vectorIiNS_9allocatorIiEEE8capacityEv
	ldur	x8, [x29, #-24]         // 8-byte Folded Reload
	mul	x9, x8, x0
	ldr	x10, [sp, #8]           // 8-byte Folded Reload
	add	x9, x10, x9
	ldur	x0, [x29, #-16]         // 8-byte Folded Reload
	ldur	x1, [x29, #-32]         // 8-byte Folded Reload
	ldr	x2, [sp, #32]           // 8-byte Folded Reload
	ldr	x3, [sp, #16]           // 8-byte Folded Reload
	mov	x4, x9
	bl	_ZNKSt6__ndk16vectorIiNS_9allocatorIiEEE31__annotate_contiguous_containerEPKvS5_S5_S5_
	ldp	x29, x30, [sp, #80]     // 16-byte Folded Reload
	add	sp, sp, #96             // =96
	ret
.Lfunc_end68:
	.size	_ZNKSt6__ndk16vectorIiNS_9allocatorIiEEE17__annotate_deleteEv, .Lfunc_end68-_ZNKSt6__ndk16vectorIiNS_9allocatorIiEEE17__annotate_deleteEv
	.cfi_endproc
                                        // -- End function
	.section	.text._ZNSt6__ndk113__vector_baseIiNS_9allocatorIiEEED2Ev,"axG",@progbits,_ZNSt6__ndk113__vector_baseIiNS_9allocatorIiEEED2Ev,comdat
	.weak	_ZNSt6__ndk113__vector_baseIiNS_9allocatorIiEEED2Ev // -- Begin function _ZNSt6__ndk113__vector_baseIiNS_9allocatorIiEEED2Ev
	.p2align	2
	.type	_ZNSt6__ndk113__vector_baseIiNS_9allocatorIiEEED2Ev,@function
_ZNSt6__ndk113__vector_baseIiNS_9allocatorIiEEED2Ev: // @_ZNSt6__ndk113__vector_baseIiNS_9allocatorIiEEED2Ev
// %bb.0:
	sub	sp, sp, #64             // =64
	stp	x29, x30, [sp, #48]     // 16-byte Folded Spill
	add	x29, sp, #48            // =48
	mov	x8, #0
	stur	x0, [x29, #-8]
	ldur	x0, [x29, #-8]
	mov	x9, x0
	ldr	x9, [x9]
	cmp	x9, x8
	cset	w10, ne
	stur	x0, [x29, #-16]         // 8-byte Folded Spill
	tbnz	w10, #0, .LBB69_1
	b	.LBB69_2
.LBB69_1:
	ldur	x0, [x29, #-16]         // 8-byte Folded Reload
	bl	_ZNSt6__ndk113__vector_baseIiNS_9allocatorIiEEE5clearEv
	ldur	x0, [x29, #-16]         // 8-byte Folded Reload
	bl	_ZNSt6__ndk113__vector_baseIiNS_9allocatorIiEEE7__allocEv
	ldur	x8, [x29, #-16]         // 8-byte Folded Reload
	ldr	x1, [x8]
	ldur	x8, [x29, #-16]         // 8-byte Folded Reload
	str	x0, [sp, #24]           // 8-byte Folded Spill
	mov	x0, x8
	str	x1, [sp, #16]           // 8-byte Folded Spill
	bl	_ZNKSt6__ndk113__vector_baseIiNS_9allocatorIiEEE8capacityEv
	ldr	x1, [sp, #24]           // 8-byte Folded Reload
	str	x0, [sp, #8]            // 8-byte Folded Spill
	mov	x0, x1
	ldr	x1, [sp, #16]           // 8-byte Folded Reload
	ldr	x2, [sp, #8]            // 8-byte Folded Reload
	bl	_ZNSt6__ndk116allocator_traitsINS_9allocatorIiEEE10deallocateERS2_Pim
.LBB69_2:
	ldp	x29, x30, [sp, #48]     // 16-byte Folded Reload
	add	sp, sp, #64             // =64
	ret
.Lfunc_end69:
	.size	_ZNSt6__ndk113__vector_baseIiNS_9allocatorIiEEED2Ev, .Lfunc_end69-_ZNSt6__ndk113__vector_baseIiNS_9allocatorIiEEED2Ev
                                        // -- End function
	.section	.text._ZNKSt6__ndk16vectorIiNS_9allocatorIiEEE31__annotate_contiguous_containerEPKvS5_S5_S5_,"axG",@progbits,_ZNKSt6__ndk16vectorIiNS_9allocatorIiEEE31__annotate_contiguous_containerEPKvS5_S5_S5_,comdat
	.hidden	_ZNKSt6__ndk16vectorIiNS_9allocatorIiEEE31__annotate_contiguous_containerEPKvS5_S5_S5_ // -- Begin function _ZNKSt6__ndk16vectorIiNS_9allocatorIiEEE31__annotate_contiguous_containerEPKvS5_S5_S5_
	.weak	_ZNKSt6__ndk16vectorIiNS_9allocatorIiEEE31__annotate_contiguous_containerEPKvS5_S5_S5_
	.p2align	2
	.type	_ZNKSt6__ndk16vectorIiNS_9allocatorIiEEE31__annotate_contiguous_containerEPKvS5_S5_S5_,@function
_ZNKSt6__ndk16vectorIiNS_9allocatorIiEEE31__annotate_contiguous_containerEPKvS5_S5_S5_: // @_ZNKSt6__ndk16vectorIiNS_9allocatorIiEEE31__annotate_contiguous_containerEPKvS5_S5_S5_
// %bb.0:
	sub	sp, sp, #48             // =48
	str	x0, [sp, #40]
	str	x1, [sp, #32]
	str	x2, [sp, #24]
	str	x3, [sp, #16]
	str	x4, [sp, #8]
	add	sp, sp, #48             // =48
	ret
.Lfunc_end70:
	.size	_ZNKSt6__ndk16vectorIiNS_9allocatorIiEEE31__annotate_contiguous_containerEPKvS5_S5_S5_, .Lfunc_end70-_ZNKSt6__ndk16vectorIiNS_9allocatorIiEEE31__annotate_contiguous_containerEPKvS5_S5_S5_
                                        // -- End function
	.section	.text._ZNKSt6__ndk16vectorIiNS_9allocatorIiEEE4dataEv,"axG",@progbits,_ZNKSt6__ndk16vectorIiNS_9allocatorIiEEE4dataEv,comdat
	.hidden	_ZNKSt6__ndk16vectorIiNS_9allocatorIiEEE4dataEv // -- Begin function _ZNKSt6__ndk16vectorIiNS_9allocatorIiEEE4dataEv
	.weak	_ZNKSt6__ndk16vectorIiNS_9allocatorIiEEE4dataEv
	.p2align	2
	.type	_ZNKSt6__ndk16vectorIiNS_9allocatorIiEEE4dataEv,@function
_ZNKSt6__ndk16vectorIiNS_9allocatorIiEEE4dataEv: // @_ZNKSt6__ndk16vectorIiNS_9allocatorIiEEE4dataEv
// %bb.0:
	sub	sp, sp, #32             // =32
	stp	x29, x30, [sp, #16]     // 16-byte Folded Spill
	add	x29, sp, #16            // =16
	str	x0, [sp, #8]
	ldr	x0, [sp, #8]
	ldr	x0, [x0]
	bl	_ZNSt6__ndk116__to_raw_pointerIiEEPT_S2_
	ldp	x29, x30, [sp, #16]     // 16-byte Folded Reload
	add	sp, sp, #32             // =32
	ret
.Lfunc_end71:
	.size	_ZNKSt6__ndk16vectorIiNS_9allocatorIiEEE4dataEv, .Lfunc_end71-_ZNKSt6__ndk16vectorIiNS_9allocatorIiEEE4dataEv
                                        // -- End function
	.section	.text._ZNKSt6__ndk16vectorIiNS_9allocatorIiEEE8capacityEv,"axG",@progbits,_ZNKSt6__ndk16vectorIiNS_9allocatorIiEEE8capacityEv,comdat
	.hidden	_ZNKSt6__ndk16vectorIiNS_9allocatorIiEEE8capacityEv // -- Begin function _ZNKSt6__ndk16vectorIiNS_9allocatorIiEEE8capacityEv
	.weak	_ZNKSt6__ndk16vectorIiNS_9allocatorIiEEE8capacityEv
	.p2align	2
	.type	_ZNKSt6__ndk16vectorIiNS_9allocatorIiEEE8capacityEv,@function
_ZNKSt6__ndk16vectorIiNS_9allocatorIiEEE8capacityEv: // @_ZNKSt6__ndk16vectorIiNS_9allocatorIiEEE8capacityEv
// %bb.0:
	sub	sp, sp, #32             // =32
	stp	x29, x30, [sp, #16]     // 16-byte Folded Spill
	add	x29, sp, #16            // =16
	str	x0, [sp, #8]
	ldr	x0, [sp, #8]
	bl	_ZNKSt6__ndk113__vector_baseIiNS_9allocatorIiEEE8capacityEv
	ldp	x29, x30, [sp, #16]     // 16-byte Folded Reload
	add	sp, sp, #32             // =32
	ret
.Lfunc_end72:
	.size	_ZNKSt6__ndk16vectorIiNS_9allocatorIiEEE8capacityEv, .Lfunc_end72-_ZNKSt6__ndk16vectorIiNS_9allocatorIiEEE8capacityEv
                                        // -- End function
	.section	.text._ZNSt6__ndk116__to_raw_pointerIiEEPT_S2_,"axG",@progbits,_ZNSt6__ndk116__to_raw_pointerIiEEPT_S2_,comdat
	.hidden	_ZNSt6__ndk116__to_raw_pointerIiEEPT_S2_ // -- Begin function _ZNSt6__ndk116__to_raw_pointerIiEEPT_S2_
	.weak	_ZNSt6__ndk116__to_raw_pointerIiEEPT_S2_
	.p2align	2
	.type	_ZNSt6__ndk116__to_raw_pointerIiEEPT_S2_,@function
_ZNSt6__ndk116__to_raw_pointerIiEEPT_S2_: // @_ZNSt6__ndk116__to_raw_pointerIiEEPT_S2_
// %bb.0:
	sub	sp, sp, #16             // =16
	str	x0, [sp, #8]
	ldr	x0, [sp, #8]
	add	sp, sp, #16             // =16
	ret
.Lfunc_end73:
	.size	_ZNSt6__ndk116__to_raw_pointerIiEEPT_S2_, .Lfunc_end73-_ZNSt6__ndk116__to_raw_pointerIiEEPT_S2_
                                        // -- End function
	.section	.text._ZNKSt6__ndk113__vector_baseIiNS_9allocatorIiEEE8capacityEv,"axG",@progbits,_ZNKSt6__ndk113__vector_baseIiNS_9allocatorIiEEE8capacityEv,comdat
	.hidden	_ZNKSt6__ndk113__vector_baseIiNS_9allocatorIiEEE8capacityEv // -- Begin function _ZNKSt6__ndk113__vector_baseIiNS_9allocatorIiEEE8capacityEv
	.weak	_ZNKSt6__ndk113__vector_baseIiNS_9allocatorIiEEE8capacityEv
	.p2align	2
	.type	_ZNKSt6__ndk113__vector_baseIiNS_9allocatorIiEEE8capacityEv,@function
_ZNKSt6__ndk113__vector_baseIiNS_9allocatorIiEEE8capacityEv: // @_ZNKSt6__ndk113__vector_baseIiNS_9allocatorIiEEE8capacityEv
// %bb.0:
	sub	sp, sp, #48             // =48
	stp	x29, x30, [sp, #32]     // 16-byte Folded Spill
	add	x29, sp, #32            // =32
	orr	x8, xzr, #0x4
	stur	x0, [x29, #-8]
	ldur	x0, [x29, #-8]
	str	x0, [sp, #16]           // 8-byte Folded Spill
	str	x8, [sp, #8]            // 8-byte Folded Spill
	bl	_ZNKSt6__ndk113__vector_baseIiNS_9allocatorIiEEE9__end_capEv
	ldr	x8, [x0]
	ldr	x0, [sp, #16]           // 8-byte Folded Reload
	ldr	x0, [x0]
	subs	x8, x8, x0
	ldr	x0, [sp, #8]            // 8-byte Folded Reload
	sdiv	x0, x8, x0
	ldp	x29, x30, [sp, #32]     // 16-byte Folded Reload
	add	sp, sp, #48             // =48
	ret
.Lfunc_end74:
	.size	_ZNKSt6__ndk113__vector_baseIiNS_9allocatorIiEEE8capacityEv, .Lfunc_end74-_ZNKSt6__ndk113__vector_baseIiNS_9allocatorIiEEE8capacityEv
                                        // -- End function
	.section	.text._ZNKSt6__ndk113__vector_baseIiNS_9allocatorIiEEE9__end_capEv,"axG",@progbits,_ZNKSt6__ndk113__vector_baseIiNS_9allocatorIiEEE9__end_capEv,comdat
	.hidden	_ZNKSt6__ndk113__vector_baseIiNS_9allocatorIiEEE9__end_capEv // -- Begin function _ZNKSt6__ndk113__vector_baseIiNS_9allocatorIiEEE9__end_capEv
	.weak	_ZNKSt6__ndk113__vector_baseIiNS_9allocatorIiEEE9__end_capEv
	.p2align	2
	.type	_ZNKSt6__ndk113__vector_baseIiNS_9allocatorIiEEE9__end_capEv,@function
_ZNKSt6__ndk113__vector_baseIiNS_9allocatorIiEEE9__end_capEv: // @_ZNKSt6__ndk113__vector_baseIiNS_9allocatorIiEEE9__end_capEv
// %bb.0:
	sub	sp, sp, #32             // =32
	stp	x29, x30, [sp, #16]     // 16-byte Folded Spill
	add	x29, sp, #16            // =16
	orr	x8, xzr, #0x10
	str	x0, [sp, #8]
	ldr	x0, [sp, #8]
	add	x0, x0, x8
	bl	_ZNKSt6__ndk117__compressed_pairIPiNS_9allocatorIiEEE5firstEv
	ldp	x29, x30, [sp, #16]     // 16-byte Folded Reload
	add	sp, sp, #32             // =32
	ret
.Lfunc_end75:
	.size	_ZNKSt6__ndk113__vector_baseIiNS_9allocatorIiEEE9__end_capEv, .Lfunc_end75-_ZNKSt6__ndk113__vector_baseIiNS_9allocatorIiEEE9__end_capEv
                                        // -- End function
	.section	.text._ZNKSt6__ndk117__compressed_pairIPiNS_9allocatorIiEEE5firstEv,"axG",@progbits,_ZNKSt6__ndk117__compressed_pairIPiNS_9allocatorIiEEE5firstEv,comdat
	.hidden	_ZNKSt6__ndk117__compressed_pairIPiNS_9allocatorIiEEE5firstEv // -- Begin function _ZNKSt6__ndk117__compressed_pairIPiNS_9allocatorIiEEE5firstEv
	.weak	_ZNKSt6__ndk117__compressed_pairIPiNS_9allocatorIiEEE5firstEv
	.p2align	2
	.type	_ZNKSt6__ndk117__compressed_pairIPiNS_9allocatorIiEEE5firstEv,@function
_ZNKSt6__ndk117__compressed_pairIPiNS_9allocatorIiEEE5firstEv: // @_ZNKSt6__ndk117__compressed_pairIPiNS_9allocatorIiEEE5firstEv
// %bb.0:
	sub	sp, sp, #32             // =32
	stp	x29, x30, [sp, #16]     // 16-byte Folded Spill
	add	x29, sp, #16            // =16
	str	x0, [sp, #8]
	ldr	x0, [sp, #8]
	bl	_ZNKSt6__ndk122__compressed_pair_elemIPiLi0ELb0EE5__getEv
	ldp	x29, x30, [sp, #16]     // 16-byte Folded Reload
	add	sp, sp, #32             // =32
	ret
.Lfunc_end76:
	.size	_ZNKSt6__ndk117__compressed_pairIPiNS_9allocatorIiEEE5firstEv, .Lfunc_end76-_ZNKSt6__ndk117__compressed_pairIPiNS_9allocatorIiEEE5firstEv
                                        // -- End function
	.section	.text._ZNKSt6__ndk122__compressed_pair_elemIPiLi0ELb0EE5__getEv,"axG",@progbits,_ZNKSt6__ndk122__compressed_pair_elemIPiLi0ELb0EE5__getEv,comdat
	.hidden	_ZNKSt6__ndk122__compressed_pair_elemIPiLi0ELb0EE5__getEv // -- Begin function _ZNKSt6__ndk122__compressed_pair_elemIPiLi0ELb0EE5__getEv
	.weak	_ZNKSt6__ndk122__compressed_pair_elemIPiLi0ELb0EE5__getEv
	.p2align	2
	.type	_ZNKSt6__ndk122__compressed_pair_elemIPiLi0ELb0EE5__getEv,@function
_ZNKSt6__ndk122__compressed_pair_elemIPiLi0ELb0EE5__getEv: // @_ZNKSt6__ndk122__compressed_pair_elemIPiLi0ELb0EE5__getEv
// %bb.0:
	sub	sp, sp, #16             // =16
	str	x0, [sp, #8]
	ldr	x0, [sp, #8]
	add	sp, sp, #16             // =16
	ret
.Lfunc_end77:
	.size	_ZNKSt6__ndk122__compressed_pair_elemIPiLi0ELb0EE5__getEv, .Lfunc_end77-_ZNKSt6__ndk122__compressed_pair_elemIPiLi0ELb0EE5__getEv
                                        // -- End function
	.section	.text._ZNSt6__ndk113__vector_baseIiNS_9allocatorIiEEE5clearEv,"axG",@progbits,_ZNSt6__ndk113__vector_baseIiNS_9allocatorIiEEE5clearEv,comdat
	.hidden	_ZNSt6__ndk113__vector_baseIiNS_9allocatorIiEEE5clearEv // -- Begin function _ZNSt6__ndk113__vector_baseIiNS_9allocatorIiEEE5clearEv
	.weak	_ZNSt6__ndk113__vector_baseIiNS_9allocatorIiEEE5clearEv
	.p2align	2
	.type	_ZNSt6__ndk113__vector_baseIiNS_9allocatorIiEEE5clearEv,@function
_ZNSt6__ndk113__vector_baseIiNS_9allocatorIiEEE5clearEv: // @_ZNSt6__ndk113__vector_baseIiNS_9allocatorIiEEE5clearEv
// %bb.0:
	sub	sp, sp, #32             // =32
	stp	x29, x30, [sp, #16]     // 16-byte Folded Spill
	add	x29, sp, #16            // =16
	str	x0, [sp, #8]
	ldr	x0, [sp, #8]
	mov	x8, x0
	ldr	x1, [x8]
	bl	_ZNSt6__ndk113__vector_baseIiNS_9allocatorIiEEE17__destruct_at_endEPi
	ldp	x29, x30, [sp, #16]     // 16-byte Folded Reload
	add	sp, sp, #32             // =32
	ret
.Lfunc_end78:
	.size	_ZNSt6__ndk113__vector_baseIiNS_9allocatorIiEEE5clearEv, .Lfunc_end78-_ZNSt6__ndk113__vector_baseIiNS_9allocatorIiEEE5clearEv
                                        // -- End function
	.section	.text._ZNSt6__ndk116allocator_traitsINS_9allocatorIiEEE10deallocateERS2_Pim,"axG",@progbits,_ZNSt6__ndk116allocator_traitsINS_9allocatorIiEEE10deallocateERS2_Pim,comdat
	.hidden	_ZNSt6__ndk116allocator_traitsINS_9allocatorIiEEE10deallocateERS2_Pim // -- Begin function _ZNSt6__ndk116allocator_traitsINS_9allocatorIiEEE10deallocateERS2_Pim
	.weak	_ZNSt6__ndk116allocator_traitsINS_9allocatorIiEEE10deallocateERS2_Pim
	.p2align	2
	.type	_ZNSt6__ndk116allocator_traitsINS_9allocatorIiEEE10deallocateERS2_Pim,@function
_ZNSt6__ndk116allocator_traitsINS_9allocatorIiEEE10deallocateERS2_Pim: // @_ZNSt6__ndk116allocator_traitsINS_9allocatorIiEEE10deallocateERS2_Pim
// %bb.0:
	sub	sp, sp, #48             // =48
	stp	x29, x30, [sp, #32]     // 16-byte Folded Spill
	add	x29, sp, #32            // =32
	stur	x0, [x29, #-8]
	str	x1, [sp, #16]
	str	x2, [sp, #8]
	ldur	x0, [x29, #-8]
	ldr	x1, [sp, #16]
	ldr	x2, [sp, #8]
	bl	_ZNSt6__ndk19allocatorIiE10deallocateEPim
	ldp	x29, x30, [sp, #32]     // 16-byte Folded Reload
	add	sp, sp, #48             // =48
	ret
.Lfunc_end79:
	.size	_ZNSt6__ndk116allocator_traitsINS_9allocatorIiEEE10deallocateERS2_Pim, .Lfunc_end79-_ZNSt6__ndk116allocator_traitsINS_9allocatorIiEEE10deallocateERS2_Pim
                                        // -- End function
	.section	.text._ZNSt6__ndk113__vector_baseIiNS_9allocatorIiEEE7__allocEv,"axG",@progbits,_ZNSt6__ndk113__vector_baseIiNS_9allocatorIiEEE7__allocEv,comdat
	.hidden	_ZNSt6__ndk113__vector_baseIiNS_9allocatorIiEEE7__allocEv // -- Begin function _ZNSt6__ndk113__vector_baseIiNS_9allocatorIiEEE7__allocEv
	.weak	_ZNSt6__ndk113__vector_baseIiNS_9allocatorIiEEE7__allocEv
	.p2align	2
	.type	_ZNSt6__ndk113__vector_baseIiNS_9allocatorIiEEE7__allocEv,@function
_ZNSt6__ndk113__vector_baseIiNS_9allocatorIiEEE7__allocEv: // @_ZNSt6__ndk113__vector_baseIiNS_9allocatorIiEEE7__allocEv
// %bb.0:
	sub	sp, sp, #32             // =32
	stp	x29, x30, [sp, #16]     // 16-byte Folded Spill
	add	x29, sp, #16            // =16
	orr	x8, xzr, #0x10
	str	x0, [sp, #8]
	ldr	x0, [sp, #8]
	add	x0, x0, x8
	bl	_ZNSt6__ndk117__compressed_pairIPiNS_9allocatorIiEEE6secondEv
	ldp	x29, x30, [sp, #16]     // 16-byte Folded Reload
	add	sp, sp, #32             // =32
	ret
.Lfunc_end80:
	.size	_ZNSt6__ndk113__vector_baseIiNS_9allocatorIiEEE7__allocEv, .Lfunc_end80-_ZNSt6__ndk113__vector_baseIiNS_9allocatorIiEEE7__allocEv
                                        // -- End function
	.section	.text._ZNSt6__ndk113__vector_baseIiNS_9allocatorIiEEE17__destruct_at_endEPi,"axG",@progbits,_ZNSt6__ndk113__vector_baseIiNS_9allocatorIiEEE17__destruct_at_endEPi,comdat
	.hidden	_ZNSt6__ndk113__vector_baseIiNS_9allocatorIiEEE17__destruct_at_endEPi // -- Begin function _ZNSt6__ndk113__vector_baseIiNS_9allocatorIiEEE17__destruct_at_endEPi
	.weak	_ZNSt6__ndk113__vector_baseIiNS_9allocatorIiEEE17__destruct_at_endEPi
	.p2align	2
	.type	_ZNSt6__ndk113__vector_baseIiNS_9allocatorIiEEE17__destruct_at_endEPi,@function
_ZNSt6__ndk113__vector_baseIiNS_9allocatorIiEEE17__destruct_at_endEPi: // @_ZNSt6__ndk113__vector_baseIiNS_9allocatorIiEEE17__destruct_at_endEPi
.Lfunc_begin15:
	.cfi_startproc
	.cfi_personality 156, DW.ref.__gxx_personality_v0
	.cfi_lsda 28, .Lexception15
// %bb.0:
	sub	sp, sp, #80             // =80
	stp	x29, x30, [sp, #64]     // 16-byte Folded Spill
	add	x29, sp, #64            // =64
	.cfi_def_cfa w29, 16
	.cfi_offset w30, -8
	.cfi_offset w29, -16
	stur	x0, [x29, #-8]
	stur	x1, [x29, #-16]
	ldur	x0, [x29, #-8]
	ldr	x1, [x0, #8]
	stur	x1, [x29, #-24]
	str	x0, [sp, #32]           // 8-byte Folded Spill
.LBB81_1:                               // =>This Inner Loop Header: Depth=1
	ldur	x8, [x29, #-16]
	ldur	x9, [x29, #-24]
	cmp	x8, x9
	cset	w10, ne
	tbnz	w10, #0, .LBB81_2
	b	.LBB81_4
.LBB81_2:                               //   in Loop: Header=BB81_1 Depth=1
	orr	x8, xzr, #0xfffffffffffffffc
	ldr	x0, [sp, #32]           // 8-byte Folded Reload
	str	x8, [sp, #24]           // 8-byte Folded Spill
	bl	_ZNSt6__ndk113__vector_baseIiNS_9allocatorIiEEE7__allocEv
	ldur	x8, [x29, #-24]
	ldr	x9, [sp, #24]           // 8-byte Folded Reload
	add	x8, x8, x9
	stur	x8, [x29, #-24]
	str	x0, [sp, #16]           // 8-byte Folded Spill
	mov	x0, x8
	bl	_ZNSt6__ndk116__to_raw_pointerIiEEPT_S2_
.Ltmp104:
	ldr	x8, [sp, #16]           // 8-byte Folded Reload
	str	x0, [sp, #8]            // 8-byte Folded Spill
	mov	x0, x8
	ldr	x1, [sp, #8]            // 8-byte Folded Reload
	bl	_ZNSt6__ndk116allocator_traitsINS_9allocatorIiEEE7destroyIiEEvRS2_PT_
.Ltmp105:
	b	.LBB81_3
.LBB81_3:                               //   in Loop: Header=BB81_1 Depth=1
	b	.LBB81_1
.LBB81_4:
	ldur	x8, [x29, #-16]
	ldr	x9, [sp, #32]           // 8-byte Folded Reload
	str	x8, [x9, #8]
	ldp	x29, x30, [sp, #64]     // 16-byte Folded Reload
	add	sp, sp, #80             // =80
	ret
.LBB81_5:
.Ltmp106:
	bl	__clang_call_terminate
.Lfunc_end81:
	.size	_ZNSt6__ndk113__vector_baseIiNS_9allocatorIiEEE17__destruct_at_endEPi, .Lfunc_end81-_ZNSt6__ndk113__vector_baseIiNS_9allocatorIiEEE17__destruct_at_endEPi
	.cfi_endproc
	.section	.gcc_except_table,"a",@progbits
	.p2align	2
GCC_except_table81:
.Lexception15:
	.byte	255                     // @LPStart Encoding = omit
	.byte	156                     // @TType Encoding = indirect pcrel sdata8
	.uleb128 .Lttbase9-.Lttbaseref9
.Lttbaseref9:
	.byte	1                       // Call site Encoding = uleb128
	.uleb128 .Lcst_end15-.Lcst_begin15
.Lcst_begin15:
	.uleb128 .Ltmp104-.Lfunc_begin15 // >> Call Site 1 <<
	.uleb128 .Ltmp105-.Ltmp104      //   Call between .Ltmp104 and .Ltmp105
	.uleb128 .Ltmp106-.Lfunc_begin15 //     jumps to .Ltmp106
	.byte	1                       //   On action: 1
.Lcst_end15:
	.byte	1                       // >> Action Record 1 <<
                                        //   Catch TypeInfo 1
	.byte	0                       //   No further actions
	.p2align	2
                                        // >> Catch TypeInfos <<
	.xword	0                       // TypeInfo 1
.Lttbase9:
	.p2align	2
                                        // -- End function
	.section	.text._ZNSt6__ndk116allocator_traitsINS_9allocatorIiEEE7destroyIiEEvRS2_PT_,"axG",@progbits,_ZNSt6__ndk116allocator_traitsINS_9allocatorIiEEE7destroyIiEEvRS2_PT_,comdat
	.weak	_ZNSt6__ndk116allocator_traitsINS_9allocatorIiEEE7destroyIiEEvRS2_PT_ // -- Begin function _ZNSt6__ndk116allocator_traitsINS_9allocatorIiEEE7destroyIiEEvRS2_PT_
	.p2align	2
	.type	_ZNSt6__ndk116allocator_traitsINS_9allocatorIiEEE7destroyIiEEvRS2_PT_,@function
_ZNSt6__ndk116allocator_traitsINS_9allocatorIiEEE7destroyIiEEvRS2_PT_: // @_ZNSt6__ndk116allocator_traitsINS_9allocatorIiEEE7destroyIiEEvRS2_PT_
	.cfi_startproc
// %bb.0:
	sub	sp, sp, #48             // =48
	stp	x29, x30, [sp, #32]     // 16-byte Folded Spill
	add	x29, sp, #32            // =32
	.cfi_def_cfa w29, 16
	.cfi_offset w30, -8
	.cfi_offset w29, -16
	add	x8, sp, #15             // =15
	stur	x0, [x29, #-8]
	str	x1, [sp, #16]
	ldur	x1, [x29, #-8]
	ldr	x2, [sp, #16]
	ldrb	w0, [x8]
	bl	_ZNSt6__ndk116allocator_traitsINS_9allocatorIiEEE9__destroyIiEEvNS_17integral_constantIbLb1EEERS2_PT_
	ldp	x29, x30, [sp, #32]     // 16-byte Folded Reload
	add	sp, sp, #48             // =48
	ret
.Lfunc_end82:
	.size	_ZNSt6__ndk116allocator_traitsINS_9allocatorIiEEE7destroyIiEEvRS2_PT_, .Lfunc_end82-_ZNSt6__ndk116allocator_traitsINS_9allocatorIiEEE7destroyIiEEvRS2_PT_
	.cfi_endproc
                                        // -- End function
	.section	.text._ZNSt6__ndk116allocator_traitsINS_9allocatorIiEEE9__destroyIiEEvNS_17integral_constantIbLb1EEERS2_PT_,"axG",@progbits,_ZNSt6__ndk116allocator_traitsINS_9allocatorIiEEE9__destroyIiEEvNS_17integral_constantIbLb1EEERS2_PT_,comdat
	.weak	_ZNSt6__ndk116allocator_traitsINS_9allocatorIiEEE9__destroyIiEEvNS_17integral_constantIbLb1EEERS2_PT_ // -- Begin function _ZNSt6__ndk116allocator_traitsINS_9allocatorIiEEE9__destroyIiEEvNS_17integral_constantIbLb1EEERS2_PT_
	.p2align	2
	.type	_ZNSt6__ndk116allocator_traitsINS_9allocatorIiEEE9__destroyIiEEvNS_17integral_constantIbLb1EEERS2_PT_,@function
_ZNSt6__ndk116allocator_traitsINS_9allocatorIiEEE9__destroyIiEEvNS_17integral_constantIbLb1EEERS2_PT_: // @_ZNSt6__ndk116allocator_traitsINS_9allocatorIiEEE9__destroyIiEEvNS_17integral_constantIbLb1EEERS2_PT_
	.cfi_startproc
// %bb.0:
	sub	sp, sp, #48             // =48
	stp	x29, x30, [sp, #32]     // 16-byte Folded Spill
	add	x29, sp, #32            // =32
	.cfi_def_cfa w29, 16
	.cfi_offset w30, -8
	.cfi_offset w29, -16
	sub	x8, x29, #1             // =1
	strb	w0, [x8]
	str	x1, [sp, #16]
	str	x2, [sp, #8]
	ldr	x0, [sp, #16]
	ldr	x1, [sp, #8]
	bl	_ZNSt6__ndk19allocatorIiE7destroyEPi
	ldp	x29, x30, [sp, #32]     // 16-byte Folded Reload
	add	sp, sp, #48             // =48
	ret
.Lfunc_end83:
	.size	_ZNSt6__ndk116allocator_traitsINS_9allocatorIiEEE9__destroyIiEEvNS_17integral_constantIbLb1EEERS2_PT_, .Lfunc_end83-_ZNSt6__ndk116allocator_traitsINS_9allocatorIiEEE9__destroyIiEEvNS_17integral_constantIbLb1EEERS2_PT_
	.cfi_endproc
                                        // -- End function
	.section	.text._ZNSt6__ndk19allocatorIiE7destroyEPi,"axG",@progbits,_ZNSt6__ndk19allocatorIiE7destroyEPi,comdat
	.hidden	_ZNSt6__ndk19allocatorIiE7destroyEPi // -- Begin function _ZNSt6__ndk19allocatorIiE7destroyEPi
	.weak	_ZNSt6__ndk19allocatorIiE7destroyEPi
	.p2align	2
	.type	_ZNSt6__ndk19allocatorIiE7destroyEPi,@function
_ZNSt6__ndk19allocatorIiE7destroyEPi:   // @_ZNSt6__ndk19allocatorIiE7destroyEPi
// %bb.0:
	sub	sp, sp, #16             // =16
	str	x0, [sp, #8]
	str	x1, [sp]
	add	sp, sp, #16             // =16
	ret
.Lfunc_end84:
	.size	_ZNSt6__ndk19allocatorIiE7destroyEPi, .Lfunc_end84-_ZNSt6__ndk19allocatorIiE7destroyEPi
                                        // -- End function
	.section	.text._ZNSt6__ndk19allocatorIiE10deallocateEPim,"axG",@progbits,_ZNSt6__ndk19allocatorIiE10deallocateEPim,comdat
	.hidden	_ZNSt6__ndk19allocatorIiE10deallocateEPim // -- Begin function _ZNSt6__ndk19allocatorIiE10deallocateEPim
	.weak	_ZNSt6__ndk19allocatorIiE10deallocateEPim
	.p2align	2
	.type	_ZNSt6__ndk19allocatorIiE10deallocateEPim,@function
_ZNSt6__ndk19allocatorIiE10deallocateEPim: // @_ZNSt6__ndk19allocatorIiE10deallocateEPim
.Lfunc_begin16:
	.cfi_startproc
	.cfi_personality 156, DW.ref.__gxx_personality_v0
	.cfi_lsda 28, .Lexception16
// %bb.0:
	sub	sp, sp, #48             // =48
	stp	x29, x30, [sp, #32]     // 16-byte Folded Spill
	add	x29, sp, #32            // =32
	.cfi_def_cfa w29, 16
	.cfi_offset w30, -8
	.cfi_offset w29, -16
	orr	x8, xzr, #0x4
	stur	x0, [x29, #-8]
	str	x1, [sp, #16]
	str	x2, [sp, #8]
	ldr	x0, [sp, #16]
	ldr	x1, [sp, #8]
	mul	x1, x1, x8
.Ltmp108:
	mov	x2, x8
	bl	_ZNSt6__ndk119__libcpp_deallocateEPvmm
.Ltmp109:
	b	.LBB85_1
.LBB85_1:
	ldp	x29, x30, [sp, #32]     // 16-byte Folded Reload
	add	sp, sp, #48             // =48
	ret
.LBB85_2:
.Ltmp110:
	bl	__clang_call_terminate
.Lfunc_end85:
	.size	_ZNSt6__ndk19allocatorIiE10deallocateEPim, .Lfunc_end85-_ZNSt6__ndk19allocatorIiE10deallocateEPim
	.cfi_endproc
	.section	.gcc_except_table,"a",@progbits
	.p2align	2
GCC_except_table85:
.Lexception16:
	.byte	255                     // @LPStart Encoding = omit
	.byte	156                     // @TType Encoding = indirect pcrel sdata8
	.uleb128 .Lttbase10-.Lttbaseref10
.Lttbaseref10:
	.byte	1                       // Call site Encoding = uleb128
	.uleb128 .Lcst_end16-.Lcst_begin16
.Lcst_begin16:
	.uleb128 .Ltmp108-.Lfunc_begin16 // >> Call Site 1 <<
	.uleb128 .Ltmp109-.Ltmp108      //   Call between .Ltmp108 and .Ltmp109
	.uleb128 .Ltmp110-.Lfunc_begin16 //     jumps to .Ltmp110
	.byte	1                       //   On action: 1
.Lcst_end16:
	.byte	1                       // >> Action Record 1 <<
                                        //   Catch TypeInfo 1
	.byte	0                       //   No further actions
	.p2align	2
                                        // >> Catch TypeInfos <<
	.xword	0                       // TypeInfo 1
.Lttbase10:
	.p2align	2
                                        // -- End function
	.section	.text._ZNSt6__ndk117__compressed_pairIPiNS_9allocatorIiEEE6secondEv,"axG",@progbits,_ZNSt6__ndk117__compressed_pairIPiNS_9allocatorIiEEE6secondEv,comdat
	.hidden	_ZNSt6__ndk117__compressed_pairIPiNS_9allocatorIiEEE6secondEv // -- Begin function _ZNSt6__ndk117__compressed_pairIPiNS_9allocatorIiEEE6secondEv
	.weak	_ZNSt6__ndk117__compressed_pairIPiNS_9allocatorIiEEE6secondEv
	.p2align	2
	.type	_ZNSt6__ndk117__compressed_pairIPiNS_9allocatorIiEEE6secondEv,@function
_ZNSt6__ndk117__compressed_pairIPiNS_9allocatorIiEEE6secondEv: // @_ZNSt6__ndk117__compressed_pairIPiNS_9allocatorIiEEE6secondEv
// %bb.0:
	sub	sp, sp, #32             // =32
	stp	x29, x30, [sp, #16]     // 16-byte Folded Spill
	add	x29, sp, #16            // =16
	str	x0, [sp, #8]
	ldr	x0, [sp, #8]
	bl	_ZNSt6__ndk122__compressed_pair_elemINS_9allocatorIiEELi1ELb1EE5__getEv
	ldp	x29, x30, [sp, #16]     // 16-byte Folded Reload
	add	sp, sp, #32             // =32
	ret
.Lfunc_end86:
	.size	_ZNSt6__ndk117__compressed_pairIPiNS_9allocatorIiEEE6secondEv, .Lfunc_end86-_ZNSt6__ndk117__compressed_pairIPiNS_9allocatorIiEEE6secondEv
                                        // -- End function
	.section	.text._ZNSt6__ndk122__compressed_pair_elemINS_9allocatorIiEELi1ELb1EE5__getEv,"axG",@progbits,_ZNSt6__ndk122__compressed_pair_elemINS_9allocatorIiEELi1ELb1EE5__getEv,comdat
	.hidden	_ZNSt6__ndk122__compressed_pair_elemINS_9allocatorIiEELi1ELb1EE5__getEv // -- Begin function _ZNSt6__ndk122__compressed_pair_elemINS_9allocatorIiEELi1ELb1EE5__getEv
	.weak	_ZNSt6__ndk122__compressed_pair_elemINS_9allocatorIiEELi1ELb1EE5__getEv
	.p2align	2
	.type	_ZNSt6__ndk122__compressed_pair_elemINS_9allocatorIiEELi1ELb1EE5__getEv,@function
_ZNSt6__ndk122__compressed_pair_elemINS_9allocatorIiEELi1ELb1EE5__getEv: // @_ZNSt6__ndk122__compressed_pair_elemINS_9allocatorIiEELi1ELb1EE5__getEv
// %bb.0:
	sub	sp, sp, #16             // =16
	str	x0, [sp, #8]
	ldr	x0, [sp, #8]
	add	sp, sp, #16             // =16
	ret
.Lfunc_end87:
	.size	_ZNSt6__ndk122__compressed_pair_elemINS_9allocatorIiEELi1ELb1EE5__getEv, .Lfunc_end87-_ZNSt6__ndk122__compressed_pair_elemINS_9allocatorIiEELi1ELb1EE5__getEv
                                        // -- End function
	.section	.text._ZNSt6__ndk116allocator_traitsINS_9allocatorImEEE10deallocateERS2_Pmm,"axG",@progbits,_ZNSt6__ndk116allocator_traitsINS_9allocatorImEEE10deallocateERS2_Pmm,comdat
	.hidden	_ZNSt6__ndk116allocator_traitsINS_9allocatorImEEE10deallocateERS2_Pmm // -- Begin function _ZNSt6__ndk116allocator_traitsINS_9allocatorImEEE10deallocateERS2_Pmm
	.weak	_ZNSt6__ndk116allocator_traitsINS_9allocatorImEEE10deallocateERS2_Pmm
	.p2align	2
	.type	_ZNSt6__ndk116allocator_traitsINS_9allocatorImEEE10deallocateERS2_Pmm,@function
_ZNSt6__ndk116allocator_traitsINS_9allocatorImEEE10deallocateERS2_Pmm: // @_ZNSt6__ndk116allocator_traitsINS_9allocatorImEEE10deallocateERS2_Pmm
// %bb.0:
	sub	sp, sp, #48             // =48
	stp	x29, x30, [sp, #32]     // 16-byte Folded Spill
	add	x29, sp, #32            // =32
	stur	x0, [x29, #-8]
	str	x1, [sp, #16]
	str	x2, [sp, #8]
	ldur	x0, [x29, #-8]
	ldr	x1, [sp, #16]
	ldr	x2, [sp, #8]
	bl	_ZNSt6__ndk19allocatorImE10deallocateEPmm
	ldp	x29, x30, [sp, #32]     // 16-byte Folded Reload
	add	sp, sp, #48             // =48
	ret
.Lfunc_end88:
	.size	_ZNSt6__ndk116allocator_traitsINS_9allocatorImEEE10deallocateERS2_Pmm, .Lfunc_end88-_ZNSt6__ndk116allocator_traitsINS_9allocatorImEEE10deallocateERS2_Pmm
                                        // -- End function
	.section	.text._ZNSt6__ndk16vectorIbNS_9allocatorIbEEE7__allocEv,"axG",@progbits,_ZNSt6__ndk16vectorIbNS_9allocatorIbEEE7__allocEv,comdat
	.hidden	_ZNSt6__ndk16vectorIbNS_9allocatorIbEEE7__allocEv // -- Begin function _ZNSt6__ndk16vectorIbNS_9allocatorIbEEE7__allocEv
	.weak	_ZNSt6__ndk16vectorIbNS_9allocatorIbEEE7__allocEv
	.p2align	2
	.type	_ZNSt6__ndk16vectorIbNS_9allocatorIbEEE7__allocEv,@function
_ZNSt6__ndk16vectorIbNS_9allocatorIbEEE7__allocEv: // @_ZNSt6__ndk16vectorIbNS_9allocatorIbEEE7__allocEv
// %bb.0:
	sub	sp, sp, #32             // =32
	stp	x29, x30, [sp, #16]     // 16-byte Folded Spill
	add	x29, sp, #16            // =16
	orr	x8, xzr, #0x10
	str	x0, [sp, #8]
	ldr	x0, [sp, #8]
	add	x0, x0, x8
	bl	_ZNSt6__ndk117__compressed_pairImNS_9allocatorImEEE6secondEv
	ldp	x29, x30, [sp, #16]     // 16-byte Folded Reload
	add	sp, sp, #32             // =32
	ret
.Lfunc_end89:
	.size	_ZNSt6__ndk16vectorIbNS_9allocatorIbEEE7__allocEv, .Lfunc_end89-_ZNSt6__ndk16vectorIbNS_9allocatorIbEEE7__allocEv
                                        // -- End function
	.section	.text._ZNSt6__ndk16vectorIbNS_9allocatorIbEEE5__capEv,"axG",@progbits,_ZNSt6__ndk16vectorIbNS_9allocatorIbEEE5__capEv,comdat
	.hidden	_ZNSt6__ndk16vectorIbNS_9allocatorIbEEE5__capEv // -- Begin function _ZNSt6__ndk16vectorIbNS_9allocatorIbEEE5__capEv
	.weak	_ZNSt6__ndk16vectorIbNS_9allocatorIbEEE5__capEv
	.p2align	2
	.type	_ZNSt6__ndk16vectorIbNS_9allocatorIbEEE5__capEv,@function
_ZNSt6__ndk16vectorIbNS_9allocatorIbEEE5__capEv: // @_ZNSt6__ndk16vectorIbNS_9allocatorIbEEE5__capEv
// %bb.0:
	sub	sp, sp, #32             // =32
	stp	x29, x30, [sp, #16]     // 16-byte Folded Spill
	add	x29, sp, #16            // =16
	orr	x8, xzr, #0x10
	str	x0, [sp, #8]
	ldr	x0, [sp, #8]
	add	x0, x0, x8
	bl	_ZNSt6__ndk117__compressed_pairImNS_9allocatorImEEE5firstEv
	ldp	x29, x30, [sp, #16]     // 16-byte Folded Reload
	add	sp, sp, #32             // =32
	ret
.Lfunc_end90:
	.size	_ZNSt6__ndk16vectorIbNS_9allocatorIbEEE5__capEv, .Lfunc_end90-_ZNSt6__ndk16vectorIbNS_9allocatorIbEEE5__capEv
                                        // -- End function
	.section	.text._ZNSt6__ndk16vectorIbNS_9allocatorIbEEE26__invalidate_all_iteratorsEv,"axG",@progbits,_ZNSt6__ndk16vectorIbNS_9allocatorIbEEE26__invalidate_all_iteratorsEv,comdat
	.hidden	_ZNSt6__ndk16vectorIbNS_9allocatorIbEEE26__invalidate_all_iteratorsEv // -- Begin function _ZNSt6__ndk16vectorIbNS_9allocatorIbEEE26__invalidate_all_iteratorsEv
	.weak	_ZNSt6__ndk16vectorIbNS_9allocatorIbEEE26__invalidate_all_iteratorsEv
	.p2align	2
	.type	_ZNSt6__ndk16vectorIbNS_9allocatorIbEEE26__invalidate_all_iteratorsEv,@function
_ZNSt6__ndk16vectorIbNS_9allocatorIbEEE26__invalidate_all_iteratorsEv: // @_ZNSt6__ndk16vectorIbNS_9allocatorIbEEE26__invalidate_all_iteratorsEv
// %bb.0:
	sub	sp, sp, #16             // =16
	str	x0, [sp, #8]
	add	sp, sp, #16             // =16
	ret
.Lfunc_end91:
	.size	_ZNSt6__ndk16vectorIbNS_9allocatorIbEEE26__invalidate_all_iteratorsEv, .Lfunc_end91-_ZNSt6__ndk16vectorIbNS_9allocatorIbEEE26__invalidate_all_iteratorsEv
                                        // -- End function
	.section	.text._ZNSt6__ndk19allocatorImE10deallocateEPmm,"axG",@progbits,_ZNSt6__ndk19allocatorImE10deallocateEPmm,comdat
	.hidden	_ZNSt6__ndk19allocatorImE10deallocateEPmm // -- Begin function _ZNSt6__ndk19allocatorImE10deallocateEPmm
	.weak	_ZNSt6__ndk19allocatorImE10deallocateEPmm
	.p2align	2
	.type	_ZNSt6__ndk19allocatorImE10deallocateEPmm,@function
_ZNSt6__ndk19allocatorImE10deallocateEPmm: // @_ZNSt6__ndk19allocatorImE10deallocateEPmm
.Lfunc_begin17:
	.cfi_startproc
	.cfi_personality 156, DW.ref.__gxx_personality_v0
	.cfi_lsda 28, .Lexception17
// %bb.0:
	sub	sp, sp, #48             // =48
	stp	x29, x30, [sp, #32]     // 16-byte Folded Spill
	add	x29, sp, #32            // =32
	.cfi_def_cfa w29, 16
	.cfi_offset w30, -8
	.cfi_offset w29, -16
	orr	x8, xzr, #0x8
	stur	x0, [x29, #-8]
	str	x1, [sp, #16]
	str	x2, [sp, #8]
	ldr	x0, [sp, #16]
	ldr	x1, [sp, #8]
	mul	x1, x1, x8
.Ltmp113:
	mov	x2, x8
	bl	_ZNSt6__ndk119__libcpp_deallocateEPvmm
.Ltmp114:
	b	.LBB92_1
.LBB92_1:
	ldp	x29, x30, [sp, #32]     // 16-byte Folded Reload
	add	sp, sp, #48             // =48
	ret
.LBB92_2:
.Ltmp115:
	bl	__clang_call_terminate
.Lfunc_end92:
	.size	_ZNSt6__ndk19allocatorImE10deallocateEPmm, .Lfunc_end92-_ZNSt6__ndk19allocatorImE10deallocateEPmm
	.cfi_endproc
	.section	.gcc_except_table,"a",@progbits
	.p2align	2
GCC_except_table92:
.Lexception17:
	.byte	255                     // @LPStart Encoding = omit
	.byte	156                     // @TType Encoding = indirect pcrel sdata8
	.uleb128 .Lttbase11-.Lttbaseref11
.Lttbaseref11:
	.byte	1                       // Call site Encoding = uleb128
	.uleb128 .Lcst_end17-.Lcst_begin17
.Lcst_begin17:
	.uleb128 .Ltmp113-.Lfunc_begin17 // >> Call Site 1 <<
	.uleb128 .Ltmp114-.Ltmp113      //   Call between .Ltmp113 and .Ltmp114
	.uleb128 .Ltmp115-.Lfunc_begin17 //     jumps to .Ltmp115
	.byte	1                       //   On action: 1
.Lcst_end17:
	.byte	1                       // >> Action Record 1 <<
                                        //   Catch TypeInfo 1
	.byte	0                       //   No further actions
	.p2align	2
                                        // >> Catch TypeInfos <<
	.xword	0                       // TypeInfo 1
.Lttbase11:
	.p2align	2
                                        // -- End function
	.section	.text._ZNSt6__ndk117__compressed_pairImNS_9allocatorImEEE6secondEv,"axG",@progbits,_ZNSt6__ndk117__compressed_pairImNS_9allocatorImEEE6secondEv,comdat
	.hidden	_ZNSt6__ndk117__compressed_pairImNS_9allocatorImEEE6secondEv // -- Begin function _ZNSt6__ndk117__compressed_pairImNS_9allocatorImEEE6secondEv
	.weak	_ZNSt6__ndk117__compressed_pairImNS_9allocatorImEEE6secondEv
	.p2align	2
	.type	_ZNSt6__ndk117__compressed_pairImNS_9allocatorImEEE6secondEv,@function
_ZNSt6__ndk117__compressed_pairImNS_9allocatorImEEE6secondEv: // @_ZNSt6__ndk117__compressed_pairImNS_9allocatorImEEE6secondEv
// %bb.0:
	sub	sp, sp, #32             // =32
	stp	x29, x30, [sp, #16]     // 16-byte Folded Spill
	add	x29, sp, #16            // =16
	str	x0, [sp, #8]
	ldr	x0, [sp, #8]
	bl	_ZNSt6__ndk122__compressed_pair_elemINS_9allocatorImEELi1ELb1EE5__getEv
	ldp	x29, x30, [sp, #16]     // 16-byte Folded Reload
	add	sp, sp, #32             // =32
	ret
.Lfunc_end93:
	.size	_ZNSt6__ndk117__compressed_pairImNS_9allocatorImEEE6secondEv, .Lfunc_end93-_ZNSt6__ndk117__compressed_pairImNS_9allocatorImEEE6secondEv
                                        // -- End function
	.section	.text._ZNSt6__ndk122__compressed_pair_elemINS_9allocatorImEELi1ELb1EE5__getEv,"axG",@progbits,_ZNSt6__ndk122__compressed_pair_elemINS_9allocatorImEELi1ELb1EE5__getEv,comdat
	.hidden	_ZNSt6__ndk122__compressed_pair_elemINS_9allocatorImEELi1ELb1EE5__getEv // -- Begin function _ZNSt6__ndk122__compressed_pair_elemINS_9allocatorImEELi1ELb1EE5__getEv
	.weak	_ZNSt6__ndk122__compressed_pair_elemINS_9allocatorImEELi1ELb1EE5__getEv
	.p2align	2
	.type	_ZNSt6__ndk122__compressed_pair_elemINS_9allocatorImEELi1ELb1EE5__getEv,@function
_ZNSt6__ndk122__compressed_pair_elemINS_9allocatorImEELi1ELb1EE5__getEv: // @_ZNSt6__ndk122__compressed_pair_elemINS_9allocatorImEELi1ELb1EE5__getEv
// %bb.0:
	sub	sp, sp, #16             // =16
	str	x0, [sp, #8]
	ldr	x0, [sp, #8]
	add	sp, sp, #16             // =16
	ret
.Lfunc_end94:
	.size	_ZNSt6__ndk122__compressed_pair_elemINS_9allocatorImEELi1ELb1EE5__getEv, .Lfunc_end94-_ZNSt6__ndk122__compressed_pair_elemINS_9allocatorImEELi1ELb1EE5__getEv
                                        // -- End function
	.section	.text._ZNSt6__ndk117__compressed_pairImNS_9allocatorImEEE5firstEv,"axG",@progbits,_ZNSt6__ndk117__compressed_pairImNS_9allocatorImEEE5firstEv,comdat
	.hidden	_ZNSt6__ndk117__compressed_pairImNS_9allocatorImEEE5firstEv // -- Begin function _ZNSt6__ndk117__compressed_pairImNS_9allocatorImEEE5firstEv
	.weak	_ZNSt6__ndk117__compressed_pairImNS_9allocatorImEEE5firstEv
	.p2align	2
	.type	_ZNSt6__ndk117__compressed_pairImNS_9allocatorImEEE5firstEv,@function
_ZNSt6__ndk117__compressed_pairImNS_9allocatorImEEE5firstEv: // @_ZNSt6__ndk117__compressed_pairImNS_9allocatorImEEE5firstEv
// %bb.0:
	sub	sp, sp, #32             // =32
	stp	x29, x30, [sp, #16]     // 16-byte Folded Spill
	add	x29, sp, #16            // =16
	str	x0, [sp, #8]
	ldr	x0, [sp, #8]
	bl	_ZNSt6__ndk122__compressed_pair_elemImLi0ELb0EE5__getEv
	ldp	x29, x30, [sp, #16]     // 16-byte Folded Reload
	add	sp, sp, #32             // =32
	ret
.Lfunc_end95:
	.size	_ZNSt6__ndk117__compressed_pairImNS_9allocatorImEEE5firstEv, .Lfunc_end95-_ZNSt6__ndk117__compressed_pairImNS_9allocatorImEEE5firstEv
                                        // -- End function
	.section	.text._ZNSt6__ndk122__compressed_pair_elemImLi0ELb0EE5__getEv,"axG",@progbits,_ZNSt6__ndk122__compressed_pair_elemImLi0ELb0EE5__getEv,comdat
	.hidden	_ZNSt6__ndk122__compressed_pair_elemImLi0ELb0EE5__getEv // -- Begin function _ZNSt6__ndk122__compressed_pair_elemImLi0ELb0EE5__getEv
	.weak	_ZNSt6__ndk122__compressed_pair_elemImLi0ELb0EE5__getEv
	.p2align	2
	.type	_ZNSt6__ndk122__compressed_pair_elemImLi0ELb0EE5__getEv,@function
_ZNSt6__ndk122__compressed_pair_elemImLi0ELb0EE5__getEv: // @_ZNSt6__ndk122__compressed_pair_elemImLi0ELb0EE5__getEv
// %bb.0:
	sub	sp, sp, #16             // =16
	str	x0, [sp, #8]
	ldr	x0, [sp, #8]
	add	sp, sp, #16             // =16
	ret
.Lfunc_end96:
	.size	_ZNSt6__ndk122__compressed_pair_elemImLi0ELb0EE5__getEv, .Lfunc_end96-_ZNSt6__ndk122__compressed_pair_elemImLi0ELb0EE5__getEv
                                        // -- End function
	.section	.text._ZNSt6__ndk114__split_bufferINS_6vectorIiNS_9allocatorIiEEEERNS2_IS4_EEEC2EmmS6_,"axG",@progbits,_ZNSt6__ndk114__split_bufferINS_6vectorIiNS_9allocatorIiEEEERNS2_IS4_EEEC2EmmS6_,comdat
	.weak	_ZNSt6__ndk114__split_bufferINS_6vectorIiNS_9allocatorIiEEEERNS2_IS4_EEEC2EmmS6_ // -- Begin function _ZNSt6__ndk114__split_bufferINS_6vectorIiNS_9allocatorIiEEEERNS2_IS4_EEEC2EmmS6_
	.p2align	2
	.type	_ZNSt6__ndk114__split_bufferINS_6vectorIiNS_9allocatorIiEEEERNS2_IS4_EEEC2EmmS6_,@function
_ZNSt6__ndk114__split_bufferINS_6vectorIiNS_9allocatorIiEEEERNS2_IS4_EEEC2EmmS6_: // @_ZNSt6__ndk114__split_bufferINS_6vectorIiNS_9allocatorIiEEEERNS2_IS4_EEEC2EmmS6_
	.cfi_startproc
// %bb.0:
	sub	sp, sp, #96             // =96
	stp	x29, x30, [sp, #80]     // 16-byte Folded Spill
	add	x29, sp, #80            // =80
	.cfi_def_cfa w29, 16
	.cfi_offset w30, -8
	.cfi_offset w29, -16
	orr	x8, xzr, #0x18
	mov	x9, #0
	mov	x4, x9
	add	x10, sp, #40            // =40
	stur	x0, [x29, #-8]
	stur	x1, [x29, #-16]
	stur	x2, [x29, #-24]
	stur	x3, [x29, #-32]
	ldur	x0, [x29, #-8]
	add	x8, x0, x8
	str	x9, [sp, #40]
	ldur	x2, [x29, #-32]
	str	x0, [sp, #32]           // 8-byte Folded Spill
	mov	x0, x8
	mov	x1, x10
	str	x4, [sp, #24]           // 8-byte Folded Spill
	bl	_ZNSt6__ndk117__compressed_pairIPNS_6vectorIiNS_9allocatorIiEEEERNS2_IS4_EEEC2IDnS7_EEOT_OT0_
	ldur	x8, [x29, #-16]
	cbnz	x8, .LBB97_1
	b	.LBB97_2
.LBB97_1:
	ldr	x0, [sp, #32]           // 8-byte Folded Reload
	bl	_ZNSt6__ndk114__split_bufferINS_6vectorIiNS_9allocatorIiEEEERNS2_IS4_EEE7__allocEv
	ldur	x1, [x29, #-16]
	bl	_ZNSt6__ndk116allocator_traitsINS_9allocatorINS_6vectorIiNS1_IiEEEEEEE8allocateERS5_m
	str	x0, [sp, #16]           // 8-byte Folded Spill
	b	.LBB97_3
.LBB97_2:
	ldr	x0, [sp, #24]           // 8-byte Folded Reload
	str	x0, [sp, #16]           // 8-byte Folded Spill
.LBB97_3:
	ldr	x8, [sp, #16]           // 8-byte Folded Reload
	orr	x9, xzr, #0x18
	ldr	x10, [sp, #32]          // 8-byte Folded Reload
	str	x8, [x10]
	ldr	x8, [sp, #32]           // 8-byte Folded Reload
	ldr	x8, [x8]
	ldur	x10, [x29, #-24]
	mul	x10, x9, x10
	add	x8, x8, x10
	ldr	x10, [sp, #32]          // 8-byte Folded Reload
	str	x8, [x10, #16]
	str	x8, [x10, #8]
	ldr	x8, [x10]
	ldur	x10, [x29, #-16]
	mul	x9, x9, x10
	add	x8, x8, x9
	ldr	x0, [sp, #32]           // 8-byte Folded Reload
	str	x8, [sp, #8]            // 8-byte Folded Spill
	bl	_ZNSt6__ndk114__split_bufferINS_6vectorIiNS_9allocatorIiEEEERNS2_IS4_EEE9__end_capEv
	ldr	x8, [sp, #8]            // 8-byte Folded Reload
	str	x8, [x0]
	ldp	x29, x30, [sp, #80]     // 16-byte Folded Reload
	add	sp, sp, #96             // =96
	ret
.Lfunc_end97:
	.size	_ZNSt6__ndk114__split_bufferINS_6vectorIiNS_9allocatorIiEEEERNS2_IS4_EEEC2EmmS6_, .Lfunc_end97-_ZNSt6__ndk114__split_bufferINS_6vectorIiNS_9allocatorIiEEEERNS2_IS4_EEEC2EmmS6_
	.cfi_endproc
                                        // -- End function
	.section	.text._ZNSt6__ndk16vectorINS0_IiNS_9allocatorIiEEEENS1_IS3_EEE26__swap_out_circular_bufferERNS_14__split_bufferIS3_RS4_EE,"axG",@progbits,_ZNSt6__ndk16vectorINS0_IiNS_9allocatorIiEEEENS1_IS3_EEE26__swap_out_circular_bufferERNS_14__split_bufferIS3_RS4_EE,comdat
	.weak	_ZNSt6__ndk16vectorINS0_IiNS_9allocatorIiEEEENS1_IS3_EEE26__swap_out_circular_bufferERNS_14__split_bufferIS3_RS4_EE // -- Begin function _ZNSt6__ndk16vectorINS0_IiNS_9allocatorIiEEEENS1_IS3_EEE26__swap_out_circular_bufferERNS_14__split_bufferIS3_RS4_EE
	.p2align	2
	.type	_ZNSt6__ndk16vectorINS0_IiNS_9allocatorIiEEEENS1_IS3_EEE26__swap_out_circular_bufferERNS_14__split_bufferIS3_RS4_EE,@function
_ZNSt6__ndk16vectorINS0_IiNS_9allocatorIiEEEENS1_IS3_EEE26__swap_out_circular_bufferERNS_14__split_bufferIS3_RS4_EE: // @_ZNSt6__ndk16vectorINS0_IiNS_9allocatorIiEEEENS1_IS3_EEE26__swap_out_circular_bufferERNS_14__split_bufferIS3_RS4_EE
	.cfi_startproc
// %bb.0:
	sub	sp, sp, #80             // =80
	stp	x29, x30, [sp, #64]     // 16-byte Folded Spill
	add	x29, sp, #64            // =64
	.cfi_def_cfa w29, 16
	.cfi_offset w30, -8
	.cfi_offset w29, -16
	orr	x8, xzr, #0x8
	orr	x9, xzr, #0x10
	stur	x0, [x29, #-8]
	stur	x1, [x29, #-16]
	ldur	x0, [x29, #-8]
	stur	x0, [x29, #-24]         // 8-byte Folded Spill
	str	x8, [sp, #32]           // 8-byte Folded Spill
	str	x9, [sp, #24]           // 8-byte Folded Spill
	bl	_ZNKSt6__ndk16vectorINS0_IiNS_9allocatorIiEEEENS1_IS3_EEE17__annotate_deleteEv
	ldur	x0, [x29, #-24]         // 8-byte Folded Reload
	bl	_ZNSt6__ndk113__vector_baseINS_6vectorIiNS_9allocatorIiEEEENS2_IS4_EEE7__allocEv
	ldur	x8, [x29, #-24]         // 8-byte Folded Reload
	ldr	x1, [x8]
	ldur	x8, [x29, #-24]         // 8-byte Folded Reload
	ldr	x2, [x8, #8]
	ldur	x9, [x29, #-16]
	ldr	x10, [sp, #32]          // 8-byte Folded Reload
	add	x3, x9, x10
	bl	_ZNSt6__ndk116allocator_traitsINS_9allocatorINS_6vectorIiNS1_IiEEEEEEE20__construct_backwardIPS4_EEvRS5_T_SA_RSA_
	ldur	x8, [x29, #-24]         // 8-byte Folded Reload
	ldur	x9, [x29, #-16]
	ldr	x10, [sp, #32]          // 8-byte Folded Reload
	add	x1, x9, x10
	mov	x0, x8
	bl	_ZNSt6__ndk14swapIPNS_6vectorIiNS_9allocatorIiEEEEEENS_9enable_ifIXaasr21is_move_constructibleIT_EE5valuesr18is_move_assignableIS7_EE5valueEvE4typeERS7_SA_
	ldur	x8, [x29, #-24]         // 8-byte Folded Reload
	ldr	x9, [sp, #32]           // 8-byte Folded Reload
	add	x0, x8, x9
	ldur	x10, [x29, #-16]
	ldr	x1, [sp, #24]           // 8-byte Folded Reload
	add	x1, x10, x1
	bl	_ZNSt6__ndk14swapIPNS_6vectorIiNS_9allocatorIiEEEEEENS_9enable_ifIXaasr21is_move_constructibleIT_EE5valuesr18is_move_assignableIS7_EE5valueEvE4typeERS7_SA_
	ldur	x0, [x29, #-24]         // 8-byte Folded Reload
	bl	_ZNSt6__ndk113__vector_baseINS_6vectorIiNS_9allocatorIiEEEENS2_IS4_EEE9__end_capEv
	ldur	x8, [x29, #-16]
	str	x0, [sp, #16]           // 8-byte Folded Spill
	mov	x0, x8
	bl	_ZNSt6__ndk114__split_bufferINS_6vectorIiNS_9allocatorIiEEEERNS2_IS4_EEE9__end_capEv
	ldr	x1, [sp, #16]           // 8-byte Folded Reload
	str	x0, [sp, #8]            // 8-byte Folded Spill
	mov	x0, x1
	ldr	x1, [sp, #8]            // 8-byte Folded Reload
	bl	_ZNSt6__ndk14swapIPNS_6vectorIiNS_9allocatorIiEEEEEENS_9enable_ifIXaasr21is_move_constructibleIT_EE5valuesr18is_move_assignableIS7_EE5valueEvE4typeERS7_SA_
	ldur	x8, [x29, #-16]
	ldr	x8, [x8, #8]
	ldur	x9, [x29, #-16]
	str	x8, [x9]
	ldur	x0, [x29, #-24]         // 8-byte Folded Reload
	bl	_ZNKSt6__ndk16vectorINS0_IiNS_9allocatorIiEEEENS1_IS3_EEE4sizeEv
	ldur	x8, [x29, #-24]         // 8-byte Folded Reload
	str	x0, [sp]                // 8-byte Folded Spill
	mov	x0, x8
	ldr	x1, [sp]                // 8-byte Folded Reload
	bl	_ZNKSt6__ndk16vectorINS0_IiNS_9allocatorIiEEEENS1_IS3_EEE14__annotate_newEm
	ldur	x0, [x29, #-24]         // 8-byte Folded Reload
	bl	_ZNSt6__ndk16vectorINS0_IiNS_9allocatorIiEEEENS1_IS3_EEE26__invalidate_all_iteratorsEv
	ldp	x29, x30, [sp, #64]     // 16-byte Folded Reload
	add	sp, sp, #80             // =80
	ret
.Lfunc_end98:
	.size	_ZNSt6__ndk16vectorINS0_IiNS_9allocatorIiEEEENS1_IS3_EEE26__swap_out_circular_bufferERNS_14__split_bufferIS3_RS4_EE, .Lfunc_end98-_ZNSt6__ndk16vectorINS0_IiNS_9allocatorIiEEEENS1_IS3_EEE26__swap_out_circular_bufferERNS_14__split_bufferIS3_RS4_EE
	.cfi_endproc
                                        // -- End function
	.section	.text._ZNSt6__ndk114__split_bufferINS_6vectorIiNS_9allocatorIiEEEERNS2_IS4_EEED2Ev,"axG",@progbits,_ZNSt6__ndk114__split_bufferINS_6vectorIiNS_9allocatorIiEEEERNS2_IS4_EEED2Ev,comdat
	.weak	_ZNSt6__ndk114__split_bufferINS_6vectorIiNS_9allocatorIiEEEERNS2_IS4_EEED2Ev // -- Begin function _ZNSt6__ndk114__split_bufferINS_6vectorIiNS_9allocatorIiEEEERNS2_IS4_EEED2Ev
	.p2align	2
	.type	_ZNSt6__ndk114__split_bufferINS_6vectorIiNS_9allocatorIiEEEERNS2_IS4_EEED2Ev,@function
_ZNSt6__ndk114__split_bufferINS_6vectorIiNS_9allocatorIiEEEERNS2_IS4_EEED2Ev: // @_ZNSt6__ndk114__split_bufferINS_6vectorIiNS_9allocatorIiEEEERNS2_IS4_EEED2Ev
.Lfunc_begin18:
	.cfi_startproc
	.cfi_personality 156, DW.ref.__gxx_personality_v0
	.cfi_lsda 28, .Lexception18
// %bb.0:
	sub	sp, sp, #64             // =64
	stp	x29, x30, [sp, #48]     // 16-byte Folded Spill
	add	x29, sp, #48            // =48
	.cfi_def_cfa w29, 16
	.cfi_offset w30, -8
	.cfi_offset w29, -16
	mov	x8, #0
	stur	x0, [x29, #-8]
	ldur	x0, [x29, #-8]
	stur	x0, [x29, #-16]         // 8-byte Folded Spill
	str	x8, [sp, #24]           // 8-byte Folded Spill
	bl	_ZNSt6__ndk114__split_bufferINS_6vectorIiNS_9allocatorIiEEEERNS2_IS4_EEE5clearEv
	ldur	x8, [x29, #-16]         // 8-byte Folded Reload
	ldr	x8, [x8]
	ldr	x0, [sp, #24]           // 8-byte Folded Reload
	cmp	x8, x0
	cset	w9, ne
	tbnz	w9, #0, .LBB99_1
	b	.LBB99_3
.LBB99_1:
	ldur	x0, [x29, #-16]         // 8-byte Folded Reload
	bl	_ZNSt6__ndk114__split_bufferINS_6vectorIiNS_9allocatorIiEEEERNS2_IS4_EEE7__allocEv
	ldur	x8, [x29, #-16]         // 8-byte Folded Reload
	ldr	x1, [x8]
.Ltmp118:
	ldur	x8, [x29, #-16]         // 8-byte Folded Reload
	str	x0, [sp, #16]           // 8-byte Folded Spill
	mov	x0, x8
	str	x1, [sp, #8]            // 8-byte Folded Spill
	bl	_ZNKSt6__ndk114__split_bufferINS_6vectorIiNS_9allocatorIiEEEERNS2_IS4_EEE8capacityEv
.Ltmp119:
	str	x0, [sp]                // 8-byte Folded Spill
	b	.LBB99_2
.LBB99_2:
	ldr	x0, [sp, #16]           // 8-byte Folded Reload
	ldr	x1, [sp, #8]            // 8-byte Folded Reload
	ldr	x2, [sp]                // 8-byte Folded Reload
	bl	_ZNSt6__ndk116allocator_traitsINS_9allocatorINS_6vectorIiNS1_IiEEEEEEE10deallocateERS5_PS4_m
.LBB99_3:
	ldp	x29, x30, [sp, #48]     // 16-byte Folded Reload
	add	sp, sp, #64             // =64
	ret
.LBB99_4:
.Ltmp120:
	bl	__clang_call_terminate
.Lfunc_end99:
	.size	_ZNSt6__ndk114__split_bufferINS_6vectorIiNS_9allocatorIiEEEERNS2_IS4_EEED2Ev, .Lfunc_end99-_ZNSt6__ndk114__split_bufferINS_6vectorIiNS_9allocatorIiEEEERNS2_IS4_EEED2Ev
	.cfi_endproc
	.section	.gcc_except_table,"a",@progbits
	.p2align	2
GCC_except_table99:
.Lexception18:
	.byte	255                     // @LPStart Encoding = omit
	.byte	156                     // @TType Encoding = indirect pcrel sdata8
	.uleb128 .Lttbase12-.Lttbaseref12
.Lttbaseref12:
	.byte	1                       // Call site Encoding = uleb128
	.uleb128 .Lcst_end18-.Lcst_begin18
.Lcst_begin18:
	.uleb128 .Ltmp118-.Lfunc_begin18 // >> Call Site 1 <<
	.uleb128 .Ltmp119-.Ltmp118      //   Call between .Ltmp118 and .Ltmp119
	.uleb128 .Ltmp120-.Lfunc_begin18 //     jumps to .Ltmp120
	.byte	1                       //   On action: 1
.Lcst_end18:
	.byte	1                       // >> Action Record 1 <<
                                        //   Catch TypeInfo 1
	.byte	0                       //   No further actions
	.p2align	2
                                        // >> Catch TypeInfos <<
	.xword	0                       // TypeInfo 1
.Lttbase12:
	.p2align	2
                                        // -- End function
	.section	.text._ZNSt6__ndk117__compressed_pairIPNS_6vectorIiNS_9allocatorIiEEEERNS2_IS4_EEEC2IDnS7_EEOT_OT0_,"axG",@progbits,_ZNSt6__ndk117__compressed_pairIPNS_6vectorIiNS_9allocatorIiEEEERNS2_IS4_EEEC2IDnS7_EEOT_OT0_,comdat
	.weak	_ZNSt6__ndk117__compressed_pairIPNS_6vectorIiNS_9allocatorIiEEEERNS2_IS4_EEEC2IDnS7_EEOT_OT0_ // -- Begin function _ZNSt6__ndk117__compressed_pairIPNS_6vectorIiNS_9allocatorIiEEEERNS2_IS4_EEEC2IDnS7_EEOT_OT0_
	.p2align	2
	.type	_ZNSt6__ndk117__compressed_pairIPNS_6vectorIiNS_9allocatorIiEEEERNS2_IS4_EEEC2IDnS7_EEOT_OT0_,@function
_ZNSt6__ndk117__compressed_pairIPNS_6vectorIiNS_9allocatorIiEEEERNS2_IS4_EEEC2IDnS7_EEOT_OT0_: // @_ZNSt6__ndk117__compressed_pairIPNS_6vectorIiNS_9allocatorIiEEEERNS2_IS4_EEEC2IDnS7_EEOT_OT0_
	.cfi_startproc
// %bb.0:
	sub	sp, sp, #80             // =80
	stp	x29, x30, [sp, #64]     // 16-byte Folded Spill
	add	x29, sp, #64            // =64
	.cfi_def_cfa w29, 16
	.cfi_offset w30, -8
	.cfi_offset w29, -16
	orr	x8, xzr, #0x8
	stur	x0, [x29, #-8]
	stur	x1, [x29, #-16]
	stur	x2, [x29, #-24]
	ldur	x0, [x29, #-8]
	ldur	x1, [x29, #-16]
	str	x0, [sp, #32]           // 8-byte Folded Spill
	mov	x0, x1
	str	x8, [sp, #24]           // 8-byte Folded Spill
	bl	_ZNSt6__ndk17forwardIDnEEOT_RNS_16remove_referenceIS1_E4typeE
	ldr	x8, [sp, #32]           // 8-byte Folded Reload
	str	x0, [sp, #16]           // 8-byte Folded Spill
	mov	x0, x8
	ldr	x1, [sp, #16]           // 8-byte Folded Reload
	bl	_ZNSt6__ndk122__compressed_pair_elemIPNS_6vectorIiNS_9allocatorIiEEEELi0ELb0EEC2IDnvEEOT_
	ldr	x8, [sp, #32]           // 8-byte Folded Reload
	ldr	x0, [sp, #24]           // 8-byte Folded Reload
	add	x0, x8, x0
	ldur	x1, [x29, #-24]
	str	x0, [sp, #8]            // 8-byte Folded Spill
	mov	x0, x1
	bl	_ZNSt6__ndk17forwardIRNS_9allocatorINS_6vectorIiNS1_IiEEEEEEEEOT_RNS_16remove_referenceIS7_E4typeE
	ldr	x8, [sp, #8]            // 8-byte Folded Reload
	str	x0, [sp]                // 8-byte Folded Spill
	mov	x0, x8
	ldr	x1, [sp]                // 8-byte Folded Reload
	bl	_ZNSt6__ndk122__compressed_pair_elemIRNS_9allocatorINS_6vectorIiNS1_IiEEEEEELi1ELb0EEC2IS6_vEEOT_
	ldp	x29, x30, [sp, #64]     // 16-byte Folded Reload
	add	sp, sp, #80             // =80
	ret
.Lfunc_end100:
	.size	_ZNSt6__ndk117__compressed_pairIPNS_6vectorIiNS_9allocatorIiEEEERNS2_IS4_EEEC2IDnS7_EEOT_OT0_, .Lfunc_end100-_ZNSt6__ndk117__compressed_pairIPNS_6vectorIiNS_9allocatorIiEEEERNS2_IS4_EEEC2IDnS7_EEOT_OT0_
	.cfi_endproc
                                        // -- End function
	.section	.text._ZNSt6__ndk116allocator_traitsINS_9allocatorINS_6vectorIiNS1_IiEEEEEEE8allocateERS5_m,"axG",@progbits,_ZNSt6__ndk116allocator_traitsINS_9allocatorINS_6vectorIiNS1_IiEEEEEEE8allocateERS5_m,comdat
	.hidden	_ZNSt6__ndk116allocator_traitsINS_9allocatorINS_6vectorIiNS1_IiEEEEEEE8allocateERS5_m // -- Begin function _ZNSt6__ndk116allocator_traitsINS_9allocatorINS_6vectorIiNS1_IiEEEEEEE8allocateERS5_m
	.weak	_ZNSt6__ndk116allocator_traitsINS_9allocatorINS_6vectorIiNS1_IiEEEEEEE8allocateERS5_m
	.p2align	2
	.type	_ZNSt6__ndk116allocator_traitsINS_9allocatorINS_6vectorIiNS1_IiEEEEEEE8allocateERS5_m,@function
_ZNSt6__ndk116allocator_traitsINS_9allocatorINS_6vectorIiNS1_IiEEEEEEE8allocateERS5_m: // @_ZNSt6__ndk116allocator_traitsINS_9allocatorINS_6vectorIiNS1_IiEEEEEEE8allocateERS5_m
	.cfi_startproc
// %bb.0:
	sub	sp, sp, #32             // =32
	stp	x29, x30, [sp, #16]     // 16-byte Folded Spill
	add	x29, sp, #16            // =16
	.cfi_def_cfa w29, 16
	.cfi_offset w30, -8
	.cfi_offset w29, -16
	mov	x8, #0
	str	x0, [sp, #8]
	str	x1, [sp]
	ldr	x0, [sp, #8]
	ldr	x1, [sp]
	mov	x2, x8
	bl	_ZNSt6__ndk19allocatorINS_6vectorIiNS0_IiEEEEE8allocateEmPKv
	ldp	x29, x30, [sp, #16]     // 16-byte Folded Reload
	add	sp, sp, #32             // =32
	ret
.Lfunc_end101:
	.size	_ZNSt6__ndk116allocator_traitsINS_9allocatorINS_6vectorIiNS1_IiEEEEEEE8allocateERS5_m, .Lfunc_end101-_ZNSt6__ndk116allocator_traitsINS_9allocatorINS_6vectorIiNS1_IiEEEEEEE8allocateERS5_m
	.cfi_endproc
                                        // -- End function
	.section	.text._ZNSt6__ndk114__split_bufferINS_6vectorIiNS_9allocatorIiEEEERNS2_IS4_EEE7__allocEv,"axG",@progbits,_ZNSt6__ndk114__split_bufferINS_6vectorIiNS_9allocatorIiEEEERNS2_IS4_EEE7__allocEv,comdat
	.hidden	_ZNSt6__ndk114__split_bufferINS_6vectorIiNS_9allocatorIiEEEERNS2_IS4_EEE7__allocEv // -- Begin function _ZNSt6__ndk114__split_bufferINS_6vectorIiNS_9allocatorIiEEEERNS2_IS4_EEE7__allocEv
	.weak	_ZNSt6__ndk114__split_bufferINS_6vectorIiNS_9allocatorIiEEEERNS2_IS4_EEE7__allocEv
	.p2align	2
	.type	_ZNSt6__ndk114__split_bufferINS_6vectorIiNS_9allocatorIiEEEERNS2_IS4_EEE7__allocEv,@function
_ZNSt6__ndk114__split_bufferINS_6vectorIiNS_9allocatorIiEEEERNS2_IS4_EEE7__allocEv: // @_ZNSt6__ndk114__split_bufferINS_6vectorIiNS_9allocatorIiEEEERNS2_IS4_EEE7__allocEv
// %bb.0:
	sub	sp, sp, #32             // =32
	stp	x29, x30, [sp, #16]     // 16-byte Folded Spill
	add	x29, sp, #16            // =16
	orr	x8, xzr, #0x18
	str	x0, [sp, #8]
	ldr	x0, [sp, #8]
	add	x0, x0, x8
	bl	_ZNSt6__ndk117__compressed_pairIPNS_6vectorIiNS_9allocatorIiEEEERNS2_IS4_EEE6secondEv
	ldp	x29, x30, [sp, #16]     // 16-byte Folded Reload
	add	sp, sp, #32             // =32
	ret
.Lfunc_end102:
	.size	_ZNSt6__ndk114__split_bufferINS_6vectorIiNS_9allocatorIiEEEERNS2_IS4_EEE7__allocEv, .Lfunc_end102-_ZNSt6__ndk114__split_bufferINS_6vectorIiNS_9allocatorIiEEEERNS2_IS4_EEE7__allocEv
                                        // -- End function
	.section	.text._ZNSt6__ndk114__split_bufferINS_6vectorIiNS_9allocatorIiEEEERNS2_IS4_EEE9__end_capEv,"axG",@progbits,_ZNSt6__ndk114__split_bufferINS_6vectorIiNS_9allocatorIiEEEERNS2_IS4_EEE9__end_capEv,comdat
	.hidden	_ZNSt6__ndk114__split_bufferINS_6vectorIiNS_9allocatorIiEEEERNS2_IS4_EEE9__end_capEv // -- Begin function _ZNSt6__ndk114__split_bufferINS_6vectorIiNS_9allocatorIiEEEERNS2_IS4_EEE9__end_capEv
	.weak	_ZNSt6__ndk114__split_bufferINS_6vectorIiNS_9allocatorIiEEEERNS2_IS4_EEE9__end_capEv
	.p2align	2
	.type	_ZNSt6__ndk114__split_bufferINS_6vectorIiNS_9allocatorIiEEEERNS2_IS4_EEE9__end_capEv,@function
_ZNSt6__ndk114__split_bufferINS_6vectorIiNS_9allocatorIiEEEERNS2_IS4_EEE9__end_capEv: // @_ZNSt6__ndk114__split_bufferINS_6vectorIiNS_9allocatorIiEEEERNS2_IS4_EEE9__end_capEv
// %bb.0:
	sub	sp, sp, #32             // =32
	stp	x29, x30, [sp, #16]     // 16-byte Folded Spill
	add	x29, sp, #16            // =16
	orr	x8, xzr, #0x18
	str	x0, [sp, #8]
	ldr	x0, [sp, #8]
	add	x0, x0, x8
	bl	_ZNSt6__ndk117__compressed_pairIPNS_6vectorIiNS_9allocatorIiEEEERNS2_IS4_EEE5firstEv
	ldp	x29, x30, [sp, #16]     // 16-byte Folded Reload
	add	sp, sp, #32             // =32
	ret
.Lfunc_end103:
	.size	_ZNSt6__ndk114__split_bufferINS_6vectorIiNS_9allocatorIiEEEERNS2_IS4_EEE9__end_capEv, .Lfunc_end103-_ZNSt6__ndk114__split_bufferINS_6vectorIiNS_9allocatorIiEEEERNS2_IS4_EEE9__end_capEv
                                        // -- End function
	.section	.text._ZNSt6__ndk17forwardIRNS_9allocatorINS_6vectorIiNS1_IiEEEEEEEEOT_RNS_16remove_referenceIS7_E4typeE,"axG",@progbits,_ZNSt6__ndk17forwardIRNS_9allocatorINS_6vectorIiNS1_IiEEEEEEEEOT_RNS_16remove_referenceIS7_E4typeE,comdat
	.hidden	_ZNSt6__ndk17forwardIRNS_9allocatorINS_6vectorIiNS1_IiEEEEEEEEOT_RNS_16remove_referenceIS7_E4typeE // -- Begin function _ZNSt6__ndk17forwardIRNS_9allocatorINS_6vectorIiNS1_IiEEEEEEEEOT_RNS_16remove_referenceIS7_E4typeE
	.weak	_ZNSt6__ndk17forwardIRNS_9allocatorINS_6vectorIiNS1_IiEEEEEEEEOT_RNS_16remove_referenceIS7_E4typeE
	.p2align	2
	.type	_ZNSt6__ndk17forwardIRNS_9allocatorINS_6vectorIiNS1_IiEEEEEEEEOT_RNS_16remove_referenceIS7_E4typeE,@function
_ZNSt6__ndk17forwardIRNS_9allocatorINS_6vectorIiNS1_IiEEEEEEEEOT_RNS_16remove_referenceIS7_E4typeE: // @_ZNSt6__ndk17forwardIRNS_9allocatorINS_6vectorIiNS1_IiEEEEEEEEOT_RNS_16remove_referenceIS7_E4typeE
// %bb.0:
	sub	sp, sp, #16             // =16
	str	x0, [sp, #8]
	ldr	x0, [sp, #8]
	add	sp, sp, #16             // =16
	ret
.Lfunc_end104:
	.size	_ZNSt6__ndk17forwardIRNS_9allocatorINS_6vectorIiNS1_IiEEEEEEEEOT_RNS_16remove_referenceIS7_E4typeE, .Lfunc_end104-_ZNSt6__ndk17forwardIRNS_9allocatorINS_6vectorIiNS1_IiEEEEEEEEOT_RNS_16remove_referenceIS7_E4typeE
                                        // -- End function
	.section	.text._ZNSt6__ndk122__compressed_pair_elemIRNS_9allocatorINS_6vectorIiNS1_IiEEEEEELi1ELb0EEC2IS6_vEEOT_,"axG",@progbits,_ZNSt6__ndk122__compressed_pair_elemIRNS_9allocatorINS_6vectorIiNS1_IiEEEEEELi1ELb0EEC2IS6_vEEOT_,comdat
	.weak	_ZNSt6__ndk122__compressed_pair_elemIRNS_9allocatorINS_6vectorIiNS1_IiEEEEEELi1ELb0EEC2IS6_vEEOT_ // -- Begin function _ZNSt6__ndk122__compressed_pair_elemIRNS_9allocatorINS_6vectorIiNS1_IiEEEEEELi1ELb0EEC2IS6_vEEOT_
	.p2align	2
	.type	_ZNSt6__ndk122__compressed_pair_elemIRNS_9allocatorINS_6vectorIiNS1_IiEEEEEELi1ELb0EEC2IS6_vEEOT_,@function
_ZNSt6__ndk122__compressed_pair_elemIRNS_9allocatorINS_6vectorIiNS1_IiEEEEEELi1ELb0EEC2IS6_vEEOT_: // @_ZNSt6__ndk122__compressed_pair_elemIRNS_9allocatorINS_6vectorIiNS1_IiEEEEEELi1ELb0EEC2IS6_vEEOT_
// %bb.0:
	sub	sp, sp, #48             // =48
	stp	x29, x30, [sp, #32]     // 16-byte Folded Spill
	add	x29, sp, #32            // =32
	stur	x0, [x29, #-8]
	str	x1, [sp, #16]
	ldur	x0, [x29, #-8]
	ldr	x1, [sp, #16]
	str	x0, [sp, #8]            // 8-byte Folded Spill
	mov	x0, x1
	bl	_ZNSt6__ndk17forwardIRNS_9allocatorINS_6vectorIiNS1_IiEEEEEEEEOT_RNS_16remove_referenceIS7_E4typeE
	ldr	x1, [sp, #8]            // 8-byte Folded Reload
	str	x0, [x1]
	ldp	x29, x30, [sp, #32]     // 16-byte Folded Reload
	add	sp, sp, #48             // =48
	ret
.Lfunc_end105:
	.size	_ZNSt6__ndk122__compressed_pair_elemIRNS_9allocatorINS_6vectorIiNS1_IiEEEEEELi1ELb0EEC2IS6_vEEOT_, .Lfunc_end105-_ZNSt6__ndk122__compressed_pair_elemIRNS_9allocatorINS_6vectorIiNS1_IiEEEEEELi1ELb0EEC2IS6_vEEOT_
                                        // -- End function
	.section	.text._ZNSt6__ndk19allocatorINS_6vectorIiNS0_IiEEEEE8allocateEmPKv,"axG",@progbits,_ZNSt6__ndk19allocatorINS_6vectorIiNS0_IiEEEEE8allocateEmPKv,comdat
	.hidden	_ZNSt6__ndk19allocatorINS_6vectorIiNS0_IiEEEEE8allocateEmPKv // -- Begin function _ZNSt6__ndk19allocatorINS_6vectorIiNS0_IiEEEEE8allocateEmPKv
	.weak	_ZNSt6__ndk19allocatorINS_6vectorIiNS0_IiEEEEE8allocateEmPKv
	.p2align	2
	.type	_ZNSt6__ndk19allocatorINS_6vectorIiNS0_IiEEEEE8allocateEmPKv,@function
_ZNSt6__ndk19allocatorINS_6vectorIiNS0_IiEEEEE8allocateEmPKv: // @_ZNSt6__ndk19allocatorINS_6vectorIiNS0_IiEEEEE8allocateEmPKv
	.cfi_startproc
// %bb.0:
	sub	sp, sp, #64             // =64
	stp	x29, x30, [sp, #48]     // 16-byte Folded Spill
	add	x29, sp, #48            // =48
	.cfi_def_cfa w29, 16
	.cfi_offset w30, -8
	.cfi_offset w29, -16
	adrp	x8, .L.str.2
	add	x8, x8, :lo12:.L.str.2
	stur	x0, [x29, #-8]
	stur	x1, [x29, #-16]
	str	x2, [sp, #24]
	ldur	x0, [x29, #-8]
	ldur	x1, [x29, #-16]
	str	x8, [sp, #16]           // 8-byte Folded Spill
	str	x1, [sp, #8]            // 8-byte Folded Spill
	bl	_ZNKSt6__ndk19allocatorINS_6vectorIiNS0_IiEEEEE8max_sizeEv
	ldr	x8, [sp, #8]            // 8-byte Folded Reload
	cmp	x8, x0
	cset	w9, hi
	tbnz	w9, #0, .LBB106_1
	b	.LBB106_2
.LBB106_1:
	ldr	x0, [sp, #16]           // 8-byte Folded Reload
	bl	_ZNSt6__ndk120__throw_length_errorEPKc
.LBB106_2:
	orr	x1, xzr, #0x8
	orr	x8, xzr, #0x18
	ldur	x9, [x29, #-16]
	mul	x0, x9, x8
	bl	_ZNSt6__ndk117__libcpp_allocateEmm
	ldp	x29, x30, [sp, #48]     // 16-byte Folded Reload
	add	sp, sp, #64             // =64
	ret
.Lfunc_end106:
	.size	_ZNSt6__ndk19allocatorINS_6vectorIiNS0_IiEEEEE8allocateEmPKv, .Lfunc_end106-_ZNSt6__ndk19allocatorINS_6vectorIiNS0_IiEEEEE8allocateEmPKv
	.cfi_endproc
                                        // -- End function
	.section	.text._ZNKSt6__ndk19allocatorINS_6vectorIiNS0_IiEEEEE8max_sizeEv,"axG",@progbits,_ZNKSt6__ndk19allocatorINS_6vectorIiNS0_IiEEEEE8max_sizeEv,comdat
	.hidden	_ZNKSt6__ndk19allocatorINS_6vectorIiNS0_IiEEEEE8max_sizeEv // -- Begin function _ZNKSt6__ndk19allocatorINS_6vectorIiNS0_IiEEEEE8max_sizeEv
	.weak	_ZNKSt6__ndk19allocatorINS_6vectorIiNS0_IiEEEEE8max_sizeEv
	.p2align	2
	.type	_ZNKSt6__ndk19allocatorINS_6vectorIiNS0_IiEEEEE8max_sizeEv,@function
_ZNKSt6__ndk19allocatorINS_6vectorIiNS0_IiEEEEE8max_sizeEv: // @_ZNKSt6__ndk19allocatorINS_6vectorIiNS0_IiEEEEE8max_sizeEv
// %bb.0:
	sub	sp, sp, #16             // =16
	mov	x8, #-6148914691236517206
	movk	x8, #2730, lsl #48
	str	x0, [sp, #8]
	mov	x0, x8
	add	sp, sp, #16             // =16
	ret
.Lfunc_end107:
	.size	_ZNKSt6__ndk19allocatorINS_6vectorIiNS0_IiEEEEE8max_sizeEv, .Lfunc_end107-_ZNKSt6__ndk19allocatorINS_6vectorIiNS0_IiEEEEE8max_sizeEv
                                        // -- End function
	.section	.text._ZNSt6__ndk120__throw_length_errorEPKc,"axG",@progbits,_ZNSt6__ndk120__throw_length_errorEPKc,comdat
	.hidden	_ZNSt6__ndk120__throw_length_errorEPKc // -- Begin function _ZNSt6__ndk120__throw_length_errorEPKc
	.weak	_ZNSt6__ndk120__throw_length_errorEPKc
	.p2align	2
	.type	_ZNSt6__ndk120__throw_length_errorEPKc,@function
_ZNSt6__ndk120__throw_length_errorEPKc: // @_ZNSt6__ndk120__throw_length_errorEPKc
.Lfunc_begin19:
	.cfi_startproc
	.cfi_personality 156, DW.ref.__gxx_personality_v0
	.cfi_lsda 28, .Lexception19
// %bb.0:
	sub	sp, sp, #64             // =64
	stp	x29, x30, [sp, #48]     // 16-byte Folded Spill
	add	x29, sp, #48            // =48
	.cfi_def_cfa w29, 16
	.cfi_offset w30, -8
	.cfi_offset w29, -16
	orr	x8, xzr, #0x10
	adrp	x9, :got:_ZTISt12length_error
	ldr	x9, [x9, :got_lo12:_ZTISt12length_error]
	adrp	x10, :got:_ZNSt12length_errorD1Ev
	ldr	x10, [x10, :got_lo12:_ZNSt12length_errorD1Ev]
	stur	x0, [x29, #-8]
	mov	x0, x8
	str	x9, [sp, #16]           // 8-byte Folded Spill
	str	x10, [sp, #8]           // 8-byte Folded Spill
	bl	__cxa_allocate_exception
	ldur	x1, [x29, #-8]
.Ltmp123:
	str	x0, [sp]                // 8-byte Folded Spill
	bl	_ZNSt12length_errorC2EPKc
.Ltmp124:
	b	.LBB108_1
.LBB108_1:
	ldr	x0, [sp]                // 8-byte Folded Reload
	ldr	x1, [sp, #16]           // 8-byte Folded Reload
	ldr	x2, [sp, #8]            // 8-byte Folded Reload
	bl	__cxa_throw
.LBB108_2:
.Ltmp125:
	mov	w8, w1
	stur	x0, [x29, #-16]
	stur	w8, [x29, #-20]
	ldr	x0, [sp]                // 8-byte Folded Reload
	bl	__cxa_free_exception
// %bb.3:
	ldur	x0, [x29, #-16]
	bl	_Unwind_Resume
.Lfunc_end108:
	.size	_ZNSt6__ndk120__throw_length_errorEPKc, .Lfunc_end108-_ZNSt6__ndk120__throw_length_errorEPKc
	.cfi_endproc
	.section	.gcc_except_table,"a",@progbits
	.p2align	2
GCC_except_table108:
.Lexception19:
	.byte	255                     // @LPStart Encoding = omit
	.byte	255                     // @TType Encoding = omit
	.byte	1                       // Call site Encoding = uleb128
	.uleb128 .Lcst_end19-.Lcst_begin19
.Lcst_begin19:
	.uleb128 .Lfunc_begin19-.Lfunc_begin19 // >> Call Site 1 <<
	.uleb128 .Ltmp123-.Lfunc_begin19 //   Call between .Lfunc_begin19 and .Ltmp123
	.byte	0                       //     has no landing pad
	.byte	0                       //   On action: cleanup
	.uleb128 .Ltmp123-.Lfunc_begin19 // >> Call Site 2 <<
	.uleb128 .Ltmp124-.Ltmp123      //   Call between .Ltmp123 and .Ltmp124
	.uleb128 .Ltmp125-.Lfunc_begin19 //     jumps to .Ltmp125
	.byte	0                       //   On action: cleanup
	.uleb128 .Ltmp124-.Lfunc_begin19 // >> Call Site 3 <<
	.uleb128 .Lfunc_end108-.Ltmp124 //   Call between .Ltmp124 and .Lfunc_end108
	.byte	0                       //     has no landing pad
	.byte	0                       //   On action: cleanup
.Lcst_end19:
	.p2align	2
                                        // -- End function
	.section	.text._ZNSt6__ndk117__libcpp_allocateEmm,"axG",@progbits,_ZNSt6__ndk117__libcpp_allocateEmm,comdat
	.hidden	_ZNSt6__ndk117__libcpp_allocateEmm // -- Begin function _ZNSt6__ndk117__libcpp_allocateEmm
	.weak	_ZNSt6__ndk117__libcpp_allocateEmm
	.p2align	2
	.type	_ZNSt6__ndk117__libcpp_allocateEmm,@function
_ZNSt6__ndk117__libcpp_allocateEmm:     // @_ZNSt6__ndk117__libcpp_allocateEmm
	.cfi_startproc
// %bb.0:
	sub	sp, sp, #32             // =32
	stp	x29, x30, [sp, #16]     // 16-byte Folded Spill
	add	x29, sp, #16            // =16
	.cfi_def_cfa w29, 16
	.cfi_offset w30, -8
	.cfi_offset w29, -16
	str	x0, [sp, #8]
	str	x1, [sp]
	ldr	x0, [sp, #8]
	bl	_Znwm
	ldp	x29, x30, [sp, #16]     // 16-byte Folded Reload
	add	sp, sp, #32             // =32
	ret
.Lfunc_end109:
	.size	_ZNSt6__ndk117__libcpp_allocateEmm, .Lfunc_end109-_ZNSt6__ndk117__libcpp_allocateEmm
	.cfi_endproc
                                        // -- End function
	.section	.text._ZNSt12length_errorC2EPKc,"axG",@progbits,_ZNSt12length_errorC2EPKc,comdat
	.hidden	_ZNSt12length_errorC2EPKc // -- Begin function _ZNSt12length_errorC2EPKc
	.weak	_ZNSt12length_errorC2EPKc
	.p2align	2
	.type	_ZNSt12length_errorC2EPKc,@function
_ZNSt12length_errorC2EPKc:              // @_ZNSt12length_errorC2EPKc
	.cfi_startproc
// %bb.0:
	sub	sp, sp, #48             // =48
	stp	x29, x30, [sp, #32]     // 16-byte Folded Spill
	add	x29, sp, #32            // =32
	.cfi_def_cfa w29, 16
	.cfi_offset w30, -8
	.cfi_offset w29, -16
	adrp	x8, :got:_ZTVSt12length_error
	ldr	x8, [x8, :got_lo12:_ZTVSt12length_error]
	orr	x9, xzr, #0x10
	add	x8, x8, x9
	stur	x0, [x29, #-8]
	str	x1, [sp, #16]
	ldur	x9, [x29, #-8]
	ldr	x1, [sp, #16]
	mov	x0, x9
	str	x8, [sp, #8]            // 8-byte Folded Spill
	str	x9, [sp]                // 8-byte Folded Spill
	bl	_ZNSt11logic_errorC2EPKc
	ldr	x8, [sp, #8]            // 8-byte Folded Reload
	ldr	x9, [sp]                // 8-byte Folded Reload
	str	x8, [x9]
	ldp	x29, x30, [sp, #32]     // 16-byte Folded Reload
	add	sp, sp, #48             // =48
	ret
.Lfunc_end110:
	.size	_ZNSt12length_errorC2EPKc, .Lfunc_end110-_ZNSt12length_errorC2EPKc
	.cfi_endproc
                                        // -- End function
	.section	.text._ZNSt6__ndk117__compressed_pairIPNS_6vectorIiNS_9allocatorIiEEEERNS2_IS4_EEE6secondEv,"axG",@progbits,_ZNSt6__ndk117__compressed_pairIPNS_6vectorIiNS_9allocatorIiEEEERNS2_IS4_EEE6secondEv,comdat
	.hidden	_ZNSt6__ndk117__compressed_pairIPNS_6vectorIiNS_9allocatorIiEEEERNS2_IS4_EEE6secondEv // -- Begin function _ZNSt6__ndk117__compressed_pairIPNS_6vectorIiNS_9allocatorIiEEEERNS2_IS4_EEE6secondEv
	.weak	_ZNSt6__ndk117__compressed_pairIPNS_6vectorIiNS_9allocatorIiEEEERNS2_IS4_EEE6secondEv
	.p2align	2
	.type	_ZNSt6__ndk117__compressed_pairIPNS_6vectorIiNS_9allocatorIiEEEERNS2_IS4_EEE6secondEv,@function
_ZNSt6__ndk117__compressed_pairIPNS_6vectorIiNS_9allocatorIiEEEERNS2_IS4_EEE6secondEv: // @_ZNSt6__ndk117__compressed_pairIPNS_6vectorIiNS_9allocatorIiEEEERNS2_IS4_EEE6secondEv
// %bb.0:
	sub	sp, sp, #32             // =32
	stp	x29, x30, [sp, #16]     // 16-byte Folded Spill
	add	x29, sp, #16            // =16
	orr	x8, xzr, #0x8
	str	x0, [sp, #8]
	ldr	x0, [sp, #8]
	add	x0, x0, x8
	bl	_ZNSt6__ndk122__compressed_pair_elemIRNS_9allocatorINS_6vectorIiNS1_IiEEEEEELi1ELb0EE5__getEv
	ldp	x29, x30, [sp, #16]     // 16-byte Folded Reload
	add	sp, sp, #32             // =32
	ret
.Lfunc_end111:
	.size	_ZNSt6__ndk117__compressed_pairIPNS_6vectorIiNS_9allocatorIiEEEERNS2_IS4_EEE6secondEv, .Lfunc_end111-_ZNSt6__ndk117__compressed_pairIPNS_6vectorIiNS_9allocatorIiEEEERNS2_IS4_EEE6secondEv
                                        // -- End function
	.section	.text._ZNSt6__ndk122__compressed_pair_elemIRNS_9allocatorINS_6vectorIiNS1_IiEEEEEELi1ELb0EE5__getEv,"axG",@progbits,_ZNSt6__ndk122__compressed_pair_elemIRNS_9allocatorINS_6vectorIiNS1_IiEEEEEELi1ELb0EE5__getEv,comdat
	.hidden	_ZNSt6__ndk122__compressed_pair_elemIRNS_9allocatorINS_6vectorIiNS1_IiEEEEEELi1ELb0EE5__getEv // -- Begin function _ZNSt6__ndk122__compressed_pair_elemIRNS_9allocatorINS_6vectorIiNS1_IiEEEEEELi1ELb0EE5__getEv
	.weak	_ZNSt6__ndk122__compressed_pair_elemIRNS_9allocatorINS_6vectorIiNS1_IiEEEEEELi1ELb0EE5__getEv
	.p2align	2
	.type	_ZNSt6__ndk122__compressed_pair_elemIRNS_9allocatorINS_6vectorIiNS1_IiEEEEEELi1ELb0EE5__getEv,@function
_ZNSt6__ndk122__compressed_pair_elemIRNS_9allocatorINS_6vectorIiNS1_IiEEEEEELi1ELb0EE5__getEv: // @_ZNSt6__ndk122__compressed_pair_elemIRNS_9allocatorINS_6vectorIiNS1_IiEEEEEELi1ELb0EE5__getEv
// %bb.0:
	sub	sp, sp, #16             // =16
	str	x0, [sp, #8]
	ldr	x0, [sp, #8]
	ldr	x0, [x0]
	add	sp, sp, #16             // =16
	ret
.Lfunc_end112:
	.size	_ZNSt6__ndk122__compressed_pair_elemIRNS_9allocatorINS_6vectorIiNS1_IiEEEEEELi1ELb0EE5__getEv, .Lfunc_end112-_ZNSt6__ndk122__compressed_pair_elemIRNS_9allocatorINS_6vectorIiNS1_IiEEEEEELi1ELb0EE5__getEv
                                        // -- End function
	.section	.text._ZNSt6__ndk117__compressed_pairIPNS_6vectorIiNS_9allocatorIiEEEERNS2_IS4_EEE5firstEv,"axG",@progbits,_ZNSt6__ndk117__compressed_pairIPNS_6vectorIiNS_9allocatorIiEEEERNS2_IS4_EEE5firstEv,comdat
	.hidden	_ZNSt6__ndk117__compressed_pairIPNS_6vectorIiNS_9allocatorIiEEEERNS2_IS4_EEE5firstEv // -- Begin function _ZNSt6__ndk117__compressed_pairIPNS_6vectorIiNS_9allocatorIiEEEERNS2_IS4_EEE5firstEv
	.weak	_ZNSt6__ndk117__compressed_pairIPNS_6vectorIiNS_9allocatorIiEEEERNS2_IS4_EEE5firstEv
	.p2align	2
	.type	_ZNSt6__ndk117__compressed_pairIPNS_6vectorIiNS_9allocatorIiEEEERNS2_IS4_EEE5firstEv,@function
_ZNSt6__ndk117__compressed_pairIPNS_6vectorIiNS_9allocatorIiEEEERNS2_IS4_EEE5firstEv: // @_ZNSt6__ndk117__compressed_pairIPNS_6vectorIiNS_9allocatorIiEEEERNS2_IS4_EEE5firstEv
// %bb.0:
	sub	sp, sp, #32             // =32
	stp	x29, x30, [sp, #16]     // 16-byte Folded Spill
	add	x29, sp, #16            // =16
	str	x0, [sp, #8]
	ldr	x0, [sp, #8]
	bl	_ZNSt6__ndk122__compressed_pair_elemIPNS_6vectorIiNS_9allocatorIiEEEELi0ELb0EE5__getEv
	ldp	x29, x30, [sp, #16]     // 16-byte Folded Reload
	add	sp, sp, #32             // =32
	ret
.Lfunc_end113:
	.size	_ZNSt6__ndk117__compressed_pairIPNS_6vectorIiNS_9allocatorIiEEEERNS2_IS4_EEE5firstEv, .Lfunc_end113-_ZNSt6__ndk117__compressed_pairIPNS_6vectorIiNS_9allocatorIiEEEERNS2_IS4_EEE5firstEv
                                        // -- End function
	.section	.text._ZNSt6__ndk122__compressed_pair_elemIPNS_6vectorIiNS_9allocatorIiEEEELi0ELb0EE5__getEv,"axG",@progbits,_ZNSt6__ndk122__compressed_pair_elemIPNS_6vectorIiNS_9allocatorIiEEEELi0ELb0EE5__getEv,comdat
	.hidden	_ZNSt6__ndk122__compressed_pair_elemIPNS_6vectorIiNS_9allocatorIiEEEELi0ELb0EE5__getEv // -- Begin function _ZNSt6__ndk122__compressed_pair_elemIPNS_6vectorIiNS_9allocatorIiEEEELi0ELb0EE5__getEv
	.weak	_ZNSt6__ndk122__compressed_pair_elemIPNS_6vectorIiNS_9allocatorIiEEEELi0ELb0EE5__getEv
	.p2align	2
	.type	_ZNSt6__ndk122__compressed_pair_elemIPNS_6vectorIiNS_9allocatorIiEEEELi0ELb0EE5__getEv,@function
_ZNSt6__ndk122__compressed_pair_elemIPNS_6vectorIiNS_9allocatorIiEEEELi0ELb0EE5__getEv: // @_ZNSt6__ndk122__compressed_pair_elemIPNS_6vectorIiNS_9allocatorIiEEEELi0ELb0EE5__getEv
// %bb.0:
	sub	sp, sp, #16             // =16
	str	x0, [sp, #8]
	ldr	x0, [sp, #8]
	add	sp, sp, #16             // =16
	ret
.Lfunc_end114:
	.size	_ZNSt6__ndk122__compressed_pair_elemIPNS_6vectorIiNS_9allocatorIiEEEELi0ELb0EE5__getEv, .Lfunc_end114-_ZNSt6__ndk122__compressed_pair_elemIPNS_6vectorIiNS_9allocatorIiEEEELi0ELb0EE5__getEv
                                        // -- End function
	.section	.text._ZNSt6__ndk116allocator_traitsINS_9allocatorINS_6vectorIiNS1_IiEEEEEEE20__construct_backwardIPS4_EEvRS5_T_SA_RSA_,"axG",@progbits,_ZNSt6__ndk116allocator_traitsINS_9allocatorINS_6vectorIiNS1_IiEEEEEEE20__construct_backwardIPS4_EEvRS5_T_SA_RSA_,comdat
	.weak	_ZNSt6__ndk116allocator_traitsINS_9allocatorINS_6vectorIiNS1_IiEEEEEEE20__construct_backwardIPS4_EEvRS5_T_SA_RSA_ // -- Begin function _ZNSt6__ndk116allocator_traitsINS_9allocatorINS_6vectorIiNS1_IiEEEEEEE20__construct_backwardIPS4_EEvRS5_T_SA_RSA_
	.p2align	2
	.type	_ZNSt6__ndk116allocator_traitsINS_9allocatorINS_6vectorIiNS1_IiEEEEEEE20__construct_backwardIPS4_EEvRS5_T_SA_RSA_,@function
_ZNSt6__ndk116allocator_traitsINS_9allocatorINS_6vectorIiNS1_IiEEEEEEE20__construct_backwardIPS4_EEvRS5_T_SA_RSA_: // @_ZNSt6__ndk116allocator_traitsINS_9allocatorINS_6vectorIiNS1_IiEEEEEEE20__construct_backwardIPS4_EEvRS5_T_SA_RSA_
	.cfi_startproc
// %bb.0:
	sub	sp, sp, #80             // =80
	stp	x29, x30, [sp, #64]     // 16-byte Folded Spill
	add	x29, sp, #64            // =64
	.cfi_def_cfa w29, 16
	.cfi_offset w30, -8
	.cfi_offset w29, -16
	stur	x0, [x29, #-8]
	stur	x1, [x29, #-16]
	stur	x2, [x29, #-24]
	str	x3, [sp, #32]
.LBB115_1:                              // =>This Inner Loop Header: Depth=1
	ldur	x8, [x29, #-24]
	ldur	x9, [x29, #-16]
	cmp	x8, x9
	cset	w10, ne
	tbnz	w10, #0, .LBB115_2
	b	.LBB115_3
.LBB115_2:                              //   in Loop: Header=BB115_1 Depth=1
	mov	x8, #-24
	ldur	x0, [x29, #-8]
	ldr	x9, [sp, #32]
	ldr	x9, [x9]
	add	x9, x9, x8
	str	x0, [sp, #24]           // 8-byte Folded Spill
	mov	x0, x9
	str	x8, [sp, #16]           // 8-byte Folded Spill
	bl	_ZNSt6__ndk116__to_raw_pointerINS_6vectorIiNS_9allocatorIiEEEEEEPT_S6_
	ldur	x8, [x29, #-24]
	ldr	x9, [sp, #16]           // 8-byte Folded Reload
	add	x8, x8, x9
	stur	x8, [x29, #-24]
	str	x0, [sp, #8]            // 8-byte Folded Spill
	mov	x0, x8
	bl	_ZNSt6__ndk116move_if_noexceptINS_6vectorIiNS_9allocatorIiEEEEEENS_11conditionalIXaantsr29is_nothrow_move_constructibleIT_EE5valuesr21is_copy_constructibleIS6_EE5valueERKS6_OS6_E4typeERS6_
	ldr	x8, [sp, #24]           // 8-byte Folded Reload
	str	x0, [sp]                // 8-byte Folded Spill
	mov	x0, x8
	ldr	x1, [sp, #8]            // 8-byte Folded Reload
	ldr	x2, [sp]                // 8-byte Folded Reload
	bl	_ZNSt6__ndk116allocator_traitsINS_9allocatorINS_6vectorIiNS1_IiEEEEEEE9constructIS4_JS4_EEEvRS5_PT_DpOT0_
	ldr	x8, [sp, #32]
	ldr	x9, [x8]
	ldr	x0, [sp, #16]           // 8-byte Folded Reload
	add	x9, x9, x0
	str	x9, [x8]
	b	.LBB115_1
.LBB115_3:
	ldp	x29, x30, [sp, #64]     // 16-byte Folded Reload
	add	sp, sp, #80             // =80
	ret
.Lfunc_end115:
	.size	_ZNSt6__ndk116allocator_traitsINS_9allocatorINS_6vectorIiNS1_IiEEEEEEE20__construct_backwardIPS4_EEvRS5_T_SA_RSA_, .Lfunc_end115-_ZNSt6__ndk116allocator_traitsINS_9allocatorINS_6vectorIiNS1_IiEEEEEEE20__construct_backwardIPS4_EEvRS5_T_SA_RSA_
	.cfi_endproc
                                        // -- End function
	.section	.text._ZNSt6__ndk14swapIPNS_6vectorIiNS_9allocatorIiEEEEEENS_9enable_ifIXaasr21is_move_constructibleIT_EE5valuesr18is_move_assignableIS7_EE5valueEvE4typeERS7_SA_,"axG",@progbits,_ZNSt6__ndk14swapIPNS_6vectorIiNS_9allocatorIiEEEEEENS_9enable_ifIXaasr21is_move_constructibleIT_EE5valuesr18is_move_assignableIS7_EE5valueEvE4typeERS7_SA_,comdat
	.hidden	_ZNSt6__ndk14swapIPNS_6vectorIiNS_9allocatorIiEEEEEENS_9enable_ifIXaasr21is_move_constructibleIT_EE5valuesr18is_move_assignableIS7_EE5valueEvE4typeERS7_SA_ // -- Begin function _ZNSt6__ndk14swapIPNS_6vectorIiNS_9allocatorIiEEEEEENS_9enable_ifIXaasr21is_move_constructibleIT_EE5valuesr18is_move_assignableIS7_EE5valueEvE4typeERS7_SA_
	.weak	_ZNSt6__ndk14swapIPNS_6vectorIiNS_9allocatorIiEEEEEENS_9enable_ifIXaasr21is_move_constructibleIT_EE5valuesr18is_move_assignableIS7_EE5valueEvE4typeERS7_SA_
	.p2align	2
	.type	_ZNSt6__ndk14swapIPNS_6vectorIiNS_9allocatorIiEEEEEENS_9enable_ifIXaasr21is_move_constructibleIT_EE5valuesr18is_move_assignableIS7_EE5valueEvE4typeERS7_SA_,@function
_ZNSt6__ndk14swapIPNS_6vectorIiNS_9allocatorIiEEEEEENS_9enable_ifIXaasr21is_move_constructibleIT_EE5valuesr18is_move_assignableIS7_EE5valueEvE4typeERS7_SA_: // @_ZNSt6__ndk14swapIPNS_6vectorIiNS_9allocatorIiEEEEEENS_9enable_ifIXaasr21is_move_constructibleIT_EE5valuesr18is_move_assignableIS7_EE5valueEvE4typeERS7_SA_
// %bb.0:
	sub	sp, sp, #48             // =48
	stp	x29, x30, [sp, #32]     // 16-byte Folded Spill
	add	x29, sp, #32            // =32
	add	x8, sp, #8              // =8
	stur	x0, [x29, #-8]
	str	x1, [sp, #16]
	ldur	x0, [x29, #-8]
	str	x8, [sp]                // 8-byte Folded Spill
	bl	_ZNSt6__ndk14moveIRPNS_6vectorIiNS_9allocatorIiEEEEEEONS_16remove_referenceIT_E4typeEOS8_
	ldr	x8, [x0]
	str	x8, [sp, #8]
	ldr	x0, [sp, #16]
	bl	_ZNSt6__ndk14moveIRPNS_6vectorIiNS_9allocatorIiEEEEEEONS_16remove_referenceIT_E4typeEOS8_
	ldr	x8, [x0]
	ldur	x0, [x29, #-8]
	str	x8, [x0]
	ldr	x0, [sp]                // 8-byte Folded Reload
	bl	_ZNSt6__ndk14moveIRPNS_6vectorIiNS_9allocatorIiEEEEEEONS_16remove_referenceIT_E4typeEOS8_
	ldr	x8, [x0]
	ldr	x0, [sp, #16]
	str	x8, [x0]
	ldp	x29, x30, [sp, #32]     // 16-byte Folded Reload
	add	sp, sp, #48             // =48
	ret
.Lfunc_end116:
	.size	_ZNSt6__ndk14swapIPNS_6vectorIiNS_9allocatorIiEEEEEENS_9enable_ifIXaasr21is_move_constructibleIT_EE5valuesr18is_move_assignableIS7_EE5valueEvE4typeERS7_SA_, .Lfunc_end116-_ZNSt6__ndk14swapIPNS_6vectorIiNS_9allocatorIiEEEEEENS_9enable_ifIXaasr21is_move_constructibleIT_EE5valuesr18is_move_assignableIS7_EE5valueEvE4typeERS7_SA_
                                        // -- End function
	.section	.text._ZNSt6__ndk113__vector_baseINS_6vectorIiNS_9allocatorIiEEEENS2_IS4_EEE9__end_capEv,"axG",@progbits,_ZNSt6__ndk113__vector_baseINS_6vectorIiNS_9allocatorIiEEEENS2_IS4_EEE9__end_capEv,comdat
	.hidden	_ZNSt6__ndk113__vector_baseINS_6vectorIiNS_9allocatorIiEEEENS2_IS4_EEE9__end_capEv // -- Begin function _ZNSt6__ndk113__vector_baseINS_6vectorIiNS_9allocatorIiEEEENS2_IS4_EEE9__end_capEv
	.weak	_ZNSt6__ndk113__vector_baseINS_6vectorIiNS_9allocatorIiEEEENS2_IS4_EEE9__end_capEv
	.p2align	2
	.type	_ZNSt6__ndk113__vector_baseINS_6vectorIiNS_9allocatorIiEEEENS2_IS4_EEE9__end_capEv,@function
_ZNSt6__ndk113__vector_baseINS_6vectorIiNS_9allocatorIiEEEENS2_IS4_EEE9__end_capEv: // @_ZNSt6__ndk113__vector_baseINS_6vectorIiNS_9allocatorIiEEEENS2_IS4_EEE9__end_capEv
// %bb.0:
	sub	sp, sp, #32             // =32
	stp	x29, x30, [sp, #16]     // 16-byte Folded Spill
	add	x29, sp, #16            // =16
	orr	x8, xzr, #0x10
	str	x0, [sp, #8]
	ldr	x0, [sp, #8]
	add	x0, x0, x8
	bl	_ZNSt6__ndk117__compressed_pairIPNS_6vectorIiNS_9allocatorIiEEEENS2_IS4_EEE5firstEv
	ldp	x29, x30, [sp, #16]     // 16-byte Folded Reload
	add	sp, sp, #32             // =32
	ret
.Lfunc_end117:
	.size	_ZNSt6__ndk113__vector_baseINS_6vectorIiNS_9allocatorIiEEEENS2_IS4_EEE9__end_capEv, .Lfunc_end117-_ZNSt6__ndk113__vector_baseINS_6vectorIiNS_9allocatorIiEEEENS2_IS4_EEE9__end_capEv
                                        // -- End function
	.section	.text._ZNKSt6__ndk16vectorINS0_IiNS_9allocatorIiEEEENS1_IS3_EEE14__annotate_newEm,"axG",@progbits,_ZNKSt6__ndk16vectorINS0_IiNS_9allocatorIiEEEENS1_IS3_EEE14__annotate_newEm,comdat
	.hidden	_ZNKSt6__ndk16vectorINS0_IiNS_9allocatorIiEEEENS1_IS3_EEE14__annotate_newEm // -- Begin function _ZNKSt6__ndk16vectorINS0_IiNS_9allocatorIiEEEENS1_IS3_EEE14__annotate_newEm
	.weak	_ZNKSt6__ndk16vectorINS0_IiNS_9allocatorIiEEEENS1_IS3_EEE14__annotate_newEm
	.p2align	2
	.type	_ZNKSt6__ndk16vectorINS0_IiNS_9allocatorIiEEEENS1_IS3_EEE14__annotate_newEm,@function
_ZNKSt6__ndk16vectorINS0_IiNS_9allocatorIiEEEENS1_IS3_EEE14__annotate_newEm: // @_ZNKSt6__ndk16vectorINS0_IiNS_9allocatorIiEEEENS1_IS3_EEE14__annotate_newEm
// %bb.0:
	sub	sp, sp, #96             // =96
	stp	x29, x30, [sp, #80]     // 16-byte Folded Spill
	add	x29, sp, #80            // =80
	orr	x8, xzr, #0x18
	stur	x0, [x29, #-8]
	stur	x1, [x29, #-16]
	ldur	x0, [x29, #-8]
	stur	x0, [x29, #-24]         // 8-byte Folded Spill
	stur	x8, [x29, #-32]         // 8-byte Folded Spill
	bl	_ZNKSt6__ndk16vectorINS0_IiNS_9allocatorIiEEEENS1_IS3_EEE4dataEv
	ldur	x8, [x29, #-24]         // 8-byte Folded Reload
	str	x0, [sp, #40]           // 8-byte Folded Spill
	mov	x0, x8
	bl	_ZNKSt6__ndk16vectorINS0_IiNS_9allocatorIiEEEENS1_IS3_EEE4dataEv
	ldur	x8, [x29, #-24]         // 8-byte Folded Reload
	str	x0, [sp, #32]           // 8-byte Folded Spill
	mov	x0, x8
	bl	_ZNKSt6__ndk16vectorINS0_IiNS_9allocatorIiEEEENS1_IS3_EEE8capacityEv
	ldur	x8, [x29, #-32]         // 8-byte Folded Reload
	mul	x0, x8, x0
	ldr	x1, [sp, #32]           // 8-byte Folded Reload
	add	x0, x1, x0
	ldur	x9, [x29, #-24]         // 8-byte Folded Reload
	str	x0, [sp, #24]           // 8-byte Folded Spill
	mov	x0, x9
	bl	_ZNKSt6__ndk16vectorINS0_IiNS_9allocatorIiEEEENS1_IS3_EEE4dataEv
	ldur	x8, [x29, #-24]         // 8-byte Folded Reload
	str	x0, [sp, #16]           // 8-byte Folded Spill
	mov	x0, x8
	bl	_ZNKSt6__ndk16vectorINS0_IiNS_9allocatorIiEEEENS1_IS3_EEE8capacityEv
	ldur	x8, [x29, #-32]         // 8-byte Folded Reload
	mul	x9, x8, x0
	ldr	x0, [sp, #16]           // 8-byte Folded Reload
	add	x9, x0, x9
	ldur	x0, [x29, #-24]         // 8-byte Folded Reload
	str	x9, [sp, #8]            // 8-byte Folded Spill
	bl	_ZNKSt6__ndk16vectorINS0_IiNS_9allocatorIiEEEENS1_IS3_EEE4dataEv
	ldur	x8, [x29, #-16]
	ldur	x9, [x29, #-32]         // 8-byte Folded Reload
	mul	x8, x9, x8
	add	x8, x0, x8
	ldur	x0, [x29, #-24]         // 8-byte Folded Reload
	ldr	x1, [sp, #40]           // 8-byte Folded Reload
	ldr	x2, [sp, #24]           // 8-byte Folded Reload
	ldr	x3, [sp, #8]            // 8-byte Folded Reload
	mov	x4, x8
	bl	_ZNKSt6__ndk16vectorINS0_IiNS_9allocatorIiEEEENS1_IS3_EEE31__annotate_contiguous_containerEPKvS7_S7_S7_
	ldp	x29, x30, [sp, #80]     // 16-byte Folded Reload
	add	sp, sp, #96             // =96
	ret
.Lfunc_end118:
	.size	_ZNKSt6__ndk16vectorINS0_IiNS_9allocatorIiEEEENS1_IS3_EEE14__annotate_newEm, .Lfunc_end118-_ZNKSt6__ndk16vectorINS0_IiNS_9allocatorIiEEEENS1_IS3_EEE14__annotate_newEm
                                        // -- End function
	.section	.text._ZNSt6__ndk16vectorINS0_IiNS_9allocatorIiEEEENS1_IS3_EEE26__invalidate_all_iteratorsEv,"axG",@progbits,_ZNSt6__ndk16vectorINS0_IiNS_9allocatorIiEEEENS1_IS3_EEE26__invalidate_all_iteratorsEv,comdat
	.hidden	_ZNSt6__ndk16vectorINS0_IiNS_9allocatorIiEEEENS1_IS3_EEE26__invalidate_all_iteratorsEv // -- Begin function _ZNSt6__ndk16vectorINS0_IiNS_9allocatorIiEEEENS1_IS3_EEE26__invalidate_all_iteratorsEv
	.weak	_ZNSt6__ndk16vectorINS0_IiNS_9allocatorIiEEEENS1_IS3_EEE26__invalidate_all_iteratorsEv
	.p2align	2
	.type	_ZNSt6__ndk16vectorINS0_IiNS_9allocatorIiEEEENS1_IS3_EEE26__invalidate_all_iteratorsEv,@function
_ZNSt6__ndk16vectorINS0_IiNS_9allocatorIiEEEENS1_IS3_EEE26__invalidate_all_iteratorsEv: // @_ZNSt6__ndk16vectorINS0_IiNS_9allocatorIiEEEENS1_IS3_EEE26__invalidate_all_iteratorsEv
// %bb.0:
	sub	sp, sp, #16             // =16
	str	x0, [sp, #8]
	add	sp, sp, #16             // =16
	ret
.Lfunc_end119:
	.size	_ZNSt6__ndk16vectorINS0_IiNS_9allocatorIiEEEENS1_IS3_EEE26__invalidate_all_iteratorsEv, .Lfunc_end119-_ZNSt6__ndk16vectorINS0_IiNS_9allocatorIiEEEENS1_IS3_EEE26__invalidate_all_iteratorsEv
                                        // -- End function
	.section	.text._ZNSt6__ndk116allocator_traitsINS_9allocatorINS_6vectorIiNS1_IiEEEEEEE9constructIS4_JS4_EEEvRS5_PT_DpOT0_,"axG",@progbits,_ZNSt6__ndk116allocator_traitsINS_9allocatorINS_6vectorIiNS1_IiEEEEEEE9constructIS4_JS4_EEEvRS5_PT_DpOT0_,comdat
	.weak	_ZNSt6__ndk116allocator_traitsINS_9allocatorINS_6vectorIiNS1_IiEEEEEEE9constructIS4_JS4_EEEvRS5_PT_DpOT0_ // -- Begin function _ZNSt6__ndk116allocator_traitsINS_9allocatorINS_6vectorIiNS1_IiEEEEEEE9constructIS4_JS4_EEEvRS5_PT_DpOT0_
	.p2align	2
	.type	_ZNSt6__ndk116allocator_traitsINS_9allocatorINS_6vectorIiNS1_IiEEEEEEE9constructIS4_JS4_EEEvRS5_PT_DpOT0_,@function
_ZNSt6__ndk116allocator_traitsINS_9allocatorINS_6vectorIiNS1_IiEEEEEEE9constructIS4_JS4_EEEvRS5_PT_DpOT0_: // @_ZNSt6__ndk116allocator_traitsINS_9allocatorINS_6vectorIiNS1_IiEEEEEEE9constructIS4_JS4_EEEvRS5_PT_DpOT0_
	.cfi_startproc
// %bb.0:
	sub	sp, sp, #80             // =80
	stp	x29, x30, [sp, #64]     // 16-byte Folded Spill
	add	x29, sp, #64            // =64
	.cfi_def_cfa w29, 16
	.cfi_offset w30, -8
	.cfi_offset w29, -16
	sub	x8, x29, #25            // =25
	stur	x0, [x29, #-8]
	stur	x1, [x29, #-16]
	stur	x2, [x29, #-24]
	ldur	x1, [x29, #-8]
	ldur	x2, [x29, #-16]
	ldur	x0, [x29, #-24]
	str	x8, [sp, #24]           // 8-byte Folded Spill
	str	x1, [sp, #16]           // 8-byte Folded Spill
	str	x2, [sp, #8]            // 8-byte Folded Spill
	bl	_ZNSt6__ndk17forwardINS_6vectorIiNS_9allocatorIiEEEEEEOT_RNS_16remove_referenceIS5_E4typeE
	ldr	x8, [sp, #24]           // 8-byte Folded Reload
	ldrb	w9, [x8]
	str	x0, [sp]                // 8-byte Folded Spill
	mov	w0, w9
	ldr	x1, [sp, #16]           // 8-byte Folded Reload
	ldr	x2, [sp, #8]            // 8-byte Folded Reload
	ldr	x3, [sp]                // 8-byte Folded Reload
	bl	_ZNSt6__ndk116allocator_traitsINS_9allocatorINS_6vectorIiNS1_IiEEEEEEE11__constructIS4_JS4_EEEvNS_17integral_constantIbLb1EEERS5_PT_DpOT0_
	ldp	x29, x30, [sp, #64]     // 16-byte Folded Reload
	add	sp, sp, #80             // =80
	ret
.Lfunc_end120:
	.size	_ZNSt6__ndk116allocator_traitsINS_9allocatorINS_6vectorIiNS1_IiEEEEEEE9constructIS4_JS4_EEEvRS5_PT_DpOT0_, .Lfunc_end120-_ZNSt6__ndk116allocator_traitsINS_9allocatorINS_6vectorIiNS1_IiEEEEEEE9constructIS4_JS4_EEEvRS5_PT_DpOT0_
	.cfi_endproc
                                        // -- End function
	.section	.text._ZNSt6__ndk116move_if_noexceptINS_6vectorIiNS_9allocatorIiEEEEEENS_11conditionalIXaantsr29is_nothrow_move_constructibleIT_EE5valuesr21is_copy_constructibleIS6_EE5valueERKS6_OS6_E4typeERS6_,"axG",@progbits,_ZNSt6__ndk116move_if_noexceptINS_6vectorIiNS_9allocatorIiEEEEEENS_11conditionalIXaantsr29is_nothrow_move_constructibleIT_EE5valuesr21is_copy_constructibleIS6_EE5valueERKS6_OS6_E4typeERS6_,comdat
	.hidden	_ZNSt6__ndk116move_if_noexceptINS_6vectorIiNS_9allocatorIiEEEEEENS_11conditionalIXaantsr29is_nothrow_move_constructibleIT_EE5valuesr21is_copy_constructibleIS6_EE5valueERKS6_OS6_E4typeERS6_ // -- Begin function _ZNSt6__ndk116move_if_noexceptINS_6vectorIiNS_9allocatorIiEEEEEENS_11conditionalIXaantsr29is_nothrow_move_constructibleIT_EE5valuesr21is_copy_constructibleIS6_EE5valueERKS6_OS6_E4typeERS6_
	.weak	_ZNSt6__ndk116move_if_noexceptINS_6vectorIiNS_9allocatorIiEEEEEENS_11conditionalIXaantsr29is_nothrow_move_constructibleIT_EE5valuesr21is_copy_constructibleIS6_EE5valueERKS6_OS6_E4typeERS6_
	.p2align	2
	.type	_ZNSt6__ndk116move_if_noexceptINS_6vectorIiNS_9allocatorIiEEEEEENS_11conditionalIXaantsr29is_nothrow_move_constructibleIT_EE5valuesr21is_copy_constructibleIS6_EE5valueERKS6_OS6_E4typeERS6_,@function
_ZNSt6__ndk116move_if_noexceptINS_6vectorIiNS_9allocatorIiEEEEEENS_11conditionalIXaantsr29is_nothrow_move_constructibleIT_EE5valuesr21is_copy_constructibleIS6_EE5valueERKS6_OS6_E4typeERS6_: // @_ZNSt6__ndk116move_if_noexceptINS_6vectorIiNS_9allocatorIiEEEEEENS_11conditionalIXaantsr29is_nothrow_move_constructibleIT_EE5valuesr21is_copy_constructibleIS6_EE5valueERKS6_OS6_E4typeERS6_
// %bb.0:
	sub	sp, sp, #32             // =32
	stp	x29, x30, [sp, #16]     // 16-byte Folded Spill
	add	x29, sp, #16            // =16
	str	x0, [sp, #8]
	ldr	x0, [sp, #8]
	bl	_ZNSt6__ndk14moveIRNS_6vectorIiNS_9allocatorIiEEEEEEONS_16remove_referenceIT_E4typeEOS7_
	ldp	x29, x30, [sp, #16]     // 16-byte Folded Reload
	add	sp, sp, #32             // =32
	ret
.Lfunc_end121:
	.size	_ZNSt6__ndk116move_if_noexceptINS_6vectorIiNS_9allocatorIiEEEEEENS_11conditionalIXaantsr29is_nothrow_move_constructibleIT_EE5valuesr21is_copy_constructibleIS6_EE5valueERKS6_OS6_E4typeERS6_, .Lfunc_end121-_ZNSt6__ndk116move_if_noexceptINS_6vectorIiNS_9allocatorIiEEEEEENS_11conditionalIXaantsr29is_nothrow_move_constructibleIT_EE5valuesr21is_copy_constructibleIS6_EE5valueERKS6_OS6_E4typeERS6_
                                        // -- End function
	.section	.text._ZNSt6__ndk116allocator_traitsINS_9allocatorINS_6vectorIiNS1_IiEEEEEEE11__constructIS4_JS4_EEEvNS_17integral_constantIbLb1EEERS5_PT_DpOT0_,"axG",@progbits,_ZNSt6__ndk116allocator_traitsINS_9allocatorINS_6vectorIiNS1_IiEEEEEEE11__constructIS4_JS4_EEEvNS_17integral_constantIbLb1EEERS5_PT_DpOT0_,comdat
	.weak	_ZNSt6__ndk116allocator_traitsINS_9allocatorINS_6vectorIiNS1_IiEEEEEEE11__constructIS4_JS4_EEEvNS_17integral_constantIbLb1EEERS5_PT_DpOT0_ // -- Begin function _ZNSt6__ndk116allocator_traitsINS_9allocatorINS_6vectorIiNS1_IiEEEEEEE11__constructIS4_JS4_EEEvNS_17integral_constantIbLb1EEERS5_PT_DpOT0_
	.p2align	2
	.type	_ZNSt6__ndk116allocator_traitsINS_9allocatorINS_6vectorIiNS1_IiEEEEEEE11__constructIS4_JS4_EEEvNS_17integral_constantIbLb1EEERS5_PT_DpOT0_,@function
_ZNSt6__ndk116allocator_traitsINS_9allocatorINS_6vectorIiNS1_IiEEEEEEE11__constructIS4_JS4_EEEvNS_17integral_constantIbLb1EEERS5_PT_DpOT0_: // @_ZNSt6__ndk116allocator_traitsINS_9allocatorINS_6vectorIiNS1_IiEEEEEEE11__constructIS4_JS4_EEEvNS_17integral_constantIbLb1EEERS5_PT_DpOT0_
	.cfi_startproc
// %bb.0:
	sub	sp, sp, #80             // =80
	stp	x29, x30, [sp, #64]     // 16-byte Folded Spill
	add	x29, sp, #64            // =64
	.cfi_def_cfa w29, 16
	.cfi_offset w30, -8
	.cfi_offset w29, -16
	sub	x8, x29, #1             // =1
	strb	w0, [x8]
	stur	x1, [x29, #-16]
	stur	x2, [x29, #-24]
	str	x3, [sp, #32]
	ldur	x0, [x29, #-16]
	ldur	x1, [x29, #-24]
	ldr	x8, [sp, #32]
	str	x0, [sp, #24]           // 8-byte Folded Spill
	mov	x0, x8
	str	x1, [sp, #16]           // 8-byte Folded Spill
	bl	_ZNSt6__ndk17forwardINS_6vectorIiNS_9allocatorIiEEEEEEOT_RNS_16remove_referenceIS5_E4typeE
	ldr	x8, [sp, #24]           // 8-byte Folded Reload
	str	x0, [sp, #8]            // 8-byte Folded Spill
	mov	x0, x8
	ldr	x1, [sp, #16]           // 8-byte Folded Reload
	ldr	x2, [sp, #8]            // 8-byte Folded Reload
	bl	_ZNSt6__ndk19allocatorINS_6vectorIiNS0_IiEEEEE9constructIS3_JS3_EEEvPT_DpOT0_
	ldp	x29, x30, [sp, #64]     // 16-byte Folded Reload
	add	sp, sp, #80             // =80
	ret
.Lfunc_end122:
	.size	_ZNSt6__ndk116allocator_traitsINS_9allocatorINS_6vectorIiNS1_IiEEEEEEE11__constructIS4_JS4_EEEvNS_17integral_constantIbLb1EEERS5_PT_DpOT0_, .Lfunc_end122-_ZNSt6__ndk116allocator_traitsINS_9allocatorINS_6vectorIiNS1_IiEEEEEEE11__constructIS4_JS4_EEEvNS_17integral_constantIbLb1EEERS5_PT_DpOT0_
	.cfi_endproc
                                        // -- End function
	.section	.text._ZNSt6__ndk17forwardINS_6vectorIiNS_9allocatorIiEEEEEEOT_RNS_16remove_referenceIS5_E4typeE,"axG",@progbits,_ZNSt6__ndk17forwardINS_6vectorIiNS_9allocatorIiEEEEEEOT_RNS_16remove_referenceIS5_E4typeE,comdat
	.hidden	_ZNSt6__ndk17forwardINS_6vectorIiNS_9allocatorIiEEEEEEOT_RNS_16remove_referenceIS5_E4typeE // -- Begin function _ZNSt6__ndk17forwardINS_6vectorIiNS_9allocatorIiEEEEEEOT_RNS_16remove_referenceIS5_E4typeE
	.weak	_ZNSt6__ndk17forwardINS_6vectorIiNS_9allocatorIiEEEEEEOT_RNS_16remove_referenceIS5_E4typeE
	.p2align	2
	.type	_ZNSt6__ndk17forwardINS_6vectorIiNS_9allocatorIiEEEEEEOT_RNS_16remove_referenceIS5_E4typeE,@function
_ZNSt6__ndk17forwardINS_6vectorIiNS_9allocatorIiEEEEEEOT_RNS_16remove_referenceIS5_E4typeE: // @_ZNSt6__ndk17forwardINS_6vectorIiNS_9allocatorIiEEEEEEOT_RNS_16remove_referenceIS5_E4typeE
// %bb.0:
	sub	sp, sp, #16             // =16
	str	x0, [sp, #8]
	ldr	x0, [sp, #8]
	add	sp, sp, #16             // =16
	ret
.Lfunc_end123:
	.size	_ZNSt6__ndk17forwardINS_6vectorIiNS_9allocatorIiEEEEEEOT_RNS_16remove_referenceIS5_E4typeE, .Lfunc_end123-_ZNSt6__ndk17forwardINS_6vectorIiNS_9allocatorIiEEEEEEOT_RNS_16remove_referenceIS5_E4typeE
                                        // -- End function
	.section	.text._ZNSt6__ndk19allocatorINS_6vectorIiNS0_IiEEEEE9constructIS3_JS3_EEEvPT_DpOT0_,"axG",@progbits,_ZNSt6__ndk19allocatorINS_6vectorIiNS0_IiEEEEE9constructIS3_JS3_EEEvPT_DpOT0_,comdat
	.weak	_ZNSt6__ndk19allocatorINS_6vectorIiNS0_IiEEEEE9constructIS3_JS3_EEEvPT_DpOT0_ // -- Begin function _ZNSt6__ndk19allocatorINS_6vectorIiNS0_IiEEEEE9constructIS3_JS3_EEEvPT_DpOT0_
	.p2align	2
	.type	_ZNSt6__ndk19allocatorINS_6vectorIiNS0_IiEEEEE9constructIS3_JS3_EEEvPT_DpOT0_,@function
_ZNSt6__ndk19allocatorINS_6vectorIiNS0_IiEEEEE9constructIS3_JS3_EEEvPT_DpOT0_: // @_ZNSt6__ndk19allocatorINS_6vectorIiNS0_IiEEEEE9constructIS3_JS3_EEEvPT_DpOT0_
// %bb.0:
	sub	sp, sp, #64             // =64
	stp	x29, x30, [sp, #48]     // 16-byte Folded Spill
	add	x29, sp, #48            // =48
	stur	x0, [x29, #-8]
	stur	x1, [x29, #-16]
	str	x2, [sp, #24]
	ldur	x0, [x29, #-16]
	ldr	x1, [sp, #24]
	str	x0, [sp, #16]           // 8-byte Folded Spill
	mov	x0, x1
	bl	_ZNSt6__ndk17forwardINS_6vectorIiNS_9allocatorIiEEEEEEOT_RNS_16remove_referenceIS5_E4typeE
	ldr	x1, [sp, #16]           // 8-byte Folded Reload
	str	x0, [sp, #8]            // 8-byte Folded Spill
	mov	x0, x1
	ldr	x1, [sp, #8]            // 8-byte Folded Reload
	bl	_ZNSt6__ndk16vectorIiNS_9allocatorIiEEEC2EOS3_
	ldp	x29, x30, [sp, #48]     // 16-byte Folded Reload
	add	sp, sp, #64             // =64
	ret
.Lfunc_end124:
	.size	_ZNSt6__ndk19allocatorINS_6vectorIiNS0_IiEEEEE9constructIS3_JS3_EEEvPT_DpOT0_, .Lfunc_end124-_ZNSt6__ndk19allocatorINS_6vectorIiNS0_IiEEEEE9constructIS3_JS3_EEEvPT_DpOT0_
                                        // -- End function
	.section	.text._ZNSt6__ndk16vectorIiNS_9allocatorIiEEEC2EOS3_,"axG",@progbits,_ZNSt6__ndk16vectorIiNS_9allocatorIiEEEC2EOS3_,comdat
	.hidden	_ZNSt6__ndk16vectorIiNS_9allocatorIiEEEC2EOS3_ // -- Begin function _ZNSt6__ndk16vectorIiNS_9allocatorIiEEEC2EOS3_
	.weak	_ZNSt6__ndk16vectorIiNS_9allocatorIiEEEC2EOS3_
	.p2align	2
	.type	_ZNSt6__ndk16vectorIiNS_9allocatorIiEEEC2EOS3_,@function
_ZNSt6__ndk16vectorIiNS_9allocatorIiEEEC2EOS3_: // @_ZNSt6__ndk16vectorIiNS_9allocatorIiEEEC2EOS3_
// %bb.0:
	sub	sp, sp, #64             // =64
	stp	x29, x30, [sp, #48]     // 16-byte Folded Spill
	add	x29, sp, #48            // =48
	mov	x8, #0
	stur	x0, [x29, #-8]
	stur	x1, [x29, #-16]
	ldur	x0, [x29, #-8]
	ldur	x1, [x29, #-16]
	str	x0, [sp, #24]           // 8-byte Folded Spill
	mov	x0, x1
	str	x8, [sp, #16]           // 8-byte Folded Spill
	bl	_ZNSt6__ndk113__vector_baseIiNS_9allocatorIiEEE7__allocEv
	bl	_ZNSt6__ndk14moveIRNS_9allocatorIiEEEEONS_16remove_referenceIT_E4typeEOS5_
	ldr	x8, [sp, #24]           // 8-byte Folded Reload
	str	x0, [sp, #8]            // 8-byte Folded Spill
	mov	x0, x8
	ldr	x1, [sp, #8]            // 8-byte Folded Reload
	bl	_ZNSt6__ndk113__vector_baseIiNS_9allocatorIiEEEC2EOS2_
	ldur	x8, [x29, #-16]
	ldr	x8, [x8]
	ldr	x0, [sp, #24]           // 8-byte Folded Reload
	str	x8, [x0]
	ldur	x8, [x29, #-16]
	ldr	x8, [x8, #8]
	ldr	x0, [sp, #24]           // 8-byte Folded Reload
	str	x8, [x0, #8]
	ldur	x0, [x29, #-16]
	bl	_ZNSt6__ndk113__vector_baseIiNS_9allocatorIiEEE9__end_capEv
	ldr	x8, [x0]
	ldr	x0, [sp, #24]           // 8-byte Folded Reload
	str	x8, [sp]                // 8-byte Folded Spill
	bl	_ZNSt6__ndk113__vector_baseIiNS_9allocatorIiEEE9__end_capEv
	ldr	x8, [sp]                // 8-byte Folded Reload
	str	x8, [x0]
	ldur	x0, [x29, #-16]
	bl	_ZNSt6__ndk113__vector_baseIiNS_9allocatorIiEEE9__end_capEv
	ldr	x8, [sp, #16]           // 8-byte Folded Reload
	str	x8, [x0]
	ldur	x0, [x29, #-16]
	str	x8, [x0, #8]
	ldur	x0, [x29, #-16]
	str	x8, [x0]
	ldp	x29, x30, [sp, #48]     // 16-byte Folded Reload
	add	sp, sp, #64             // =64
	ret
.Lfunc_end125:
	.size	_ZNSt6__ndk16vectorIiNS_9allocatorIiEEEC2EOS3_, .Lfunc_end125-_ZNSt6__ndk16vectorIiNS_9allocatorIiEEEC2EOS3_
                                        // -- End function
	.section	.text._ZNSt6__ndk14moveIRNS_9allocatorIiEEEEONS_16remove_referenceIT_E4typeEOS5_,"axG",@progbits,_ZNSt6__ndk14moveIRNS_9allocatorIiEEEEONS_16remove_referenceIT_E4typeEOS5_,comdat
	.hidden	_ZNSt6__ndk14moveIRNS_9allocatorIiEEEEONS_16remove_referenceIT_E4typeEOS5_ // -- Begin function _ZNSt6__ndk14moveIRNS_9allocatorIiEEEEONS_16remove_referenceIT_E4typeEOS5_
	.weak	_ZNSt6__ndk14moveIRNS_9allocatorIiEEEEONS_16remove_referenceIT_E4typeEOS5_
	.p2align	2
	.type	_ZNSt6__ndk14moveIRNS_9allocatorIiEEEEONS_16remove_referenceIT_E4typeEOS5_,@function
_ZNSt6__ndk14moveIRNS_9allocatorIiEEEEONS_16remove_referenceIT_E4typeEOS5_: // @_ZNSt6__ndk14moveIRNS_9allocatorIiEEEEONS_16remove_referenceIT_E4typeEOS5_
// %bb.0:
	sub	sp, sp, #16             // =16
	str	x0, [sp, #8]
	ldr	x0, [sp, #8]
	add	sp, sp, #16             // =16
	ret
.Lfunc_end126:
	.size	_ZNSt6__ndk14moveIRNS_9allocatorIiEEEEONS_16remove_referenceIT_E4typeEOS5_, .Lfunc_end126-_ZNSt6__ndk14moveIRNS_9allocatorIiEEEEONS_16remove_referenceIT_E4typeEOS5_
                                        // -- End function
	.section	.text._ZNSt6__ndk113__vector_baseIiNS_9allocatorIiEEEC2EOS2_,"axG",@progbits,_ZNSt6__ndk113__vector_baseIiNS_9allocatorIiEEEC2EOS2_,comdat
	.hidden	_ZNSt6__ndk113__vector_baseIiNS_9allocatorIiEEEC2EOS2_ // -- Begin function _ZNSt6__ndk113__vector_baseIiNS_9allocatorIiEEEC2EOS2_
	.weak	_ZNSt6__ndk113__vector_baseIiNS_9allocatorIiEEEC2EOS2_
	.p2align	2
	.type	_ZNSt6__ndk113__vector_baseIiNS_9allocatorIiEEEC2EOS2_,@function
_ZNSt6__ndk113__vector_baseIiNS_9allocatorIiEEEC2EOS2_: // @_ZNSt6__ndk113__vector_baseIiNS_9allocatorIiEEEC2EOS2_
.Lfunc_begin20:
	.cfi_startproc
	.cfi_personality 156, DW.ref.__gxx_personality_v0
	.cfi_lsda 28, .Lexception20
// %bb.0:
	sub	sp, sp, #80             // =80
	stp	x29, x30, [sp, #64]     // 16-byte Folded Spill
	add	x29, sp, #64            // =64
	.cfi_def_cfa w29, 16
	.cfi_offset w30, -8
	.cfi_offset w29, -16
	mov	x8, #0
	stur	x0, [x29, #-8]
	stur	x1, [x29, #-16]
	ldur	x0, [x29, #-8]
.Ltmp131:
	str	x0, [sp, #32]           // 8-byte Folded Spill
	str	x8, [sp, #24]           // 8-byte Folded Spill
	bl	_ZNSt6__ndk120__vector_base_commonILb1EEC2Ev
.Ltmp132:
	b	.LBB127_1
.LBB127_1:
	sub	x1, x29, #24            // =24
	orr	x8, xzr, #0x10
	ldr	x9, [sp, #32]           // 8-byte Folded Reload
	ldr	x10, [sp, #24]          // 8-byte Folded Reload
	str	x10, [x9]
	ldr	x9, [sp, #32]           // 8-byte Folded Reload
	str	x10, [x9, #8]
	add	x0, x9, x8
	stur	x10, [x29, #-24]
	ldur	x8, [x29, #-16]
	str	x0, [sp, #16]           // 8-byte Folded Spill
	mov	x0, x8
	str	x1, [sp, #8]            // 8-byte Folded Spill
	bl	_ZNSt6__ndk14moveIRNS_9allocatorIiEEEEONS_16remove_referenceIT_E4typeEOS5_
.Ltmp133:
	ldr	x8, [sp, #16]           // 8-byte Folded Reload
	str	x0, [sp]                // 8-byte Folded Spill
	mov	x0, x8
	ldr	x1, [sp, #8]            // 8-byte Folded Reload
	ldr	x2, [sp]                // 8-byte Folded Reload
	bl	_ZNSt6__ndk117__compressed_pairIPiNS_9allocatorIiEEEC2IDnS3_EEOT_OT0_
.Ltmp134:
	b	.LBB127_2
.LBB127_2:
	ldp	x29, x30, [sp, #64]     // 16-byte Folded Reload
	add	sp, sp, #80             // =80
	ret
.LBB127_3:
.Ltmp135:
	bl	__clang_call_terminate
.Lfunc_end127:
	.size	_ZNSt6__ndk113__vector_baseIiNS_9allocatorIiEEEC2EOS2_, .Lfunc_end127-_ZNSt6__ndk113__vector_baseIiNS_9allocatorIiEEEC2EOS2_
	.cfi_endproc
	.section	.gcc_except_table,"a",@progbits
	.p2align	2
GCC_except_table127:
.Lexception20:
	.byte	255                     // @LPStart Encoding = omit
	.byte	156                     // @TType Encoding = indirect pcrel sdata8
	.uleb128 .Lttbase13-.Lttbaseref13
.Lttbaseref13:
	.byte	1                       // Call site Encoding = uleb128
	.uleb128 .Lcst_end20-.Lcst_begin20
.Lcst_begin20:
	.uleb128 .Ltmp131-.Lfunc_begin20 // >> Call Site 1 <<
	.uleb128 .Ltmp134-.Ltmp131      //   Call between .Ltmp131 and .Ltmp134
	.uleb128 .Ltmp135-.Lfunc_begin20 //     jumps to .Ltmp135
	.byte	1                       //   On action: 1
.Lcst_end20:
	.byte	1                       // >> Action Record 1 <<
                                        //   Catch TypeInfo 1
	.byte	0                       //   No further actions
	.p2align	2
                                        // >> Catch TypeInfos <<
	.xword	0                       // TypeInfo 1
.Lttbase13:
	.p2align	2
                                        // -- End function
	.section	.text._ZNSt6__ndk113__vector_baseIiNS_9allocatorIiEEE9__end_capEv,"axG",@progbits,_ZNSt6__ndk113__vector_baseIiNS_9allocatorIiEEE9__end_capEv,comdat
	.hidden	_ZNSt6__ndk113__vector_baseIiNS_9allocatorIiEEE9__end_capEv // -- Begin function _ZNSt6__ndk113__vector_baseIiNS_9allocatorIiEEE9__end_capEv
	.weak	_ZNSt6__ndk113__vector_baseIiNS_9allocatorIiEEE9__end_capEv
	.p2align	2
	.type	_ZNSt6__ndk113__vector_baseIiNS_9allocatorIiEEE9__end_capEv,@function
_ZNSt6__ndk113__vector_baseIiNS_9allocatorIiEEE9__end_capEv: // @_ZNSt6__ndk113__vector_baseIiNS_9allocatorIiEEE9__end_capEv
// %bb.0:
	sub	sp, sp, #32             // =32
	stp	x29, x30, [sp, #16]     // 16-byte Folded Spill
	add	x29, sp, #16            // =16
	orr	x8, xzr, #0x10
	str	x0, [sp, #8]
	ldr	x0, [sp, #8]
	add	x0, x0, x8
	bl	_ZNSt6__ndk117__compressed_pairIPiNS_9allocatorIiEEE5firstEv
	ldp	x29, x30, [sp, #16]     // 16-byte Folded Reload
	add	sp, sp, #32             // =32
	ret
.Lfunc_end128:
	.size	_ZNSt6__ndk113__vector_baseIiNS_9allocatorIiEEE9__end_capEv, .Lfunc_end128-_ZNSt6__ndk113__vector_baseIiNS_9allocatorIiEEE9__end_capEv
                                        // -- End function
	.section	.text._ZNSt6__ndk117__compressed_pairIPiNS_9allocatorIiEEEC2IDnS3_EEOT_OT0_,"axG",@progbits,_ZNSt6__ndk117__compressed_pairIPiNS_9allocatorIiEEEC2IDnS3_EEOT_OT0_,comdat
	.weak	_ZNSt6__ndk117__compressed_pairIPiNS_9allocatorIiEEEC2IDnS3_EEOT_OT0_ // -- Begin function _ZNSt6__ndk117__compressed_pairIPiNS_9allocatorIiEEEC2IDnS3_EEOT_OT0_
	.p2align	2
	.type	_ZNSt6__ndk117__compressed_pairIPiNS_9allocatorIiEEEC2IDnS3_EEOT_OT0_,@function
_ZNSt6__ndk117__compressed_pairIPiNS_9allocatorIiEEEC2IDnS3_EEOT_OT0_: // @_ZNSt6__ndk117__compressed_pairIPiNS_9allocatorIiEEEC2IDnS3_EEOT_OT0_
	.cfi_startproc
// %bb.0:
	sub	sp, sp, #64             // =64
	stp	x29, x30, [sp, #48]     // 16-byte Folded Spill
	add	x29, sp, #48            // =48
	.cfi_def_cfa w29, 16
	.cfi_offset w30, -8
	.cfi_offset w29, -16
	stur	x0, [x29, #-8]
	stur	x1, [x29, #-16]
	str	x2, [sp, #24]
	ldur	x0, [x29, #-8]
	ldur	x1, [x29, #-16]
	str	x0, [sp, #16]           // 8-byte Folded Spill
	mov	x0, x1
	bl	_ZNSt6__ndk17forwardIDnEEOT_RNS_16remove_referenceIS1_E4typeE
	ldr	x1, [sp, #16]           // 8-byte Folded Reload
	str	x0, [sp, #8]            // 8-byte Folded Spill
	mov	x0, x1
	ldr	x1, [sp, #8]            // 8-byte Folded Reload
	bl	_ZNSt6__ndk122__compressed_pair_elemIPiLi0ELb0EEC2IDnvEEOT_
	ldr	x0, [sp, #24]
	bl	_ZNSt6__ndk17forwardINS_9allocatorIiEEEEOT_RNS_16remove_referenceIS3_E4typeE
	ldr	x1, [sp, #16]           // 8-byte Folded Reload
	str	x0, [sp]                // 8-byte Folded Spill
	mov	x0, x1
	ldr	x1, [sp]                // 8-byte Folded Reload
	bl	_ZNSt6__ndk122__compressed_pair_elemINS_9allocatorIiEELi1ELb1EEC2IS2_vEEOT_
	ldp	x29, x30, [sp, #48]     // 16-byte Folded Reload
	add	sp, sp, #64             // =64
	ret
.Lfunc_end129:
